CCS PCM C Compiler, Version 5.093, 4770               16-oct.-25 14:52

               Filename:   C:\Users\MPF\Desktop\Git\Electr-nica-Digital-2\Guia 3\Ejercicio 5\TP#3_Ejercicio5.lst

               ROM used:   1117 words (27%)
                           Largest free fragment is 2048
               RAM used:   27 (7%) at main() level
                           75 (20%) worst case
               Stack used: 6 locations (5 in main + 1 for interrupts)
               Stack size: 16

0000:  MOVLP  00
0001:  GOTO   39A
0002:  NOP
*
0004:  CLRF   03
0005:  MOVLP  00
0006:  MOVLB  00
0007:  MOVF   77,W
0008:  MOVWF  20
0009:  MOVF   78,W
000A:  MOVWF  21
000B:  MOVF   79,W
000C:  MOVWF  22
000D:  MOVF   7A,W
000E:  MOVWF  23
000F:  BTFSS  0B.5
0010:  GOTO   013
0011:  BTFSC  0B.2
0012:  GOTO   01C
0013:  MOVF   20,W
0014:  MOVWF  77
0015:  MOVF   21,W
0016:  MOVWF  78
0017:  MOVF   22,W
0018:  MOVWF  79
0019:  MOVF   23,W
001A:  MOVWF  7A
001B:  RETFIE
001C:  MOVLP  00
001D:  GOTO   01E
.................... #include <TP3_Ejercicio5.h>
.................... #include <16F1827.h>
.................... //////////// Standard Header file for the PIC16F1827 device ////////////////
.................... ///////////////////////////////////////////////////////////////////////////
.................... ////        (C) Copyright 1996, 2014 Custom Computer Services          ////
.................... //// This source code may only be used by licensed users of the CCS C  ////
.................... //// compiler.  This source code may only be distributed to other      ////
.................... //// licensed users of the CCS C compiler.  No other use, reproduction ////
.................... //// or distribution is permitted without written permission.          ////
.................... //// Derivative programs created using this software in object code    ////
.................... //// form are not restricted in any way.                               ////
.................... ///////////////////////////////////////////////////////////////////////////
.................... #device PIC16F1827
*
01FA:  MOVLW  8E
01FB:  MOVWF  77
01FC:  MOVF   3A,W
01FD:  MOVWF  78
01FE:  MOVF   39,W
01FF:  MOVWF  79
0200:  CLRF   7A
0201:  MOVF   78,F
0202:  BTFSS  03.2
0203:  GOTO   20E
0204:  MOVF   79,W
0205:  MOVWF  78
0206:  CLRF   79
0207:  MOVLW  08
0208:  SUBWF  77,F
0209:  MOVF   78,F
020A:  BTFSS  03.2
020B:  GOTO   20E
020C:  CLRF   77
020D:  GOTO   216
020E:  BCF    03.0
020F:  BTFSC  78.7
0210:  GOTO   215
0211:  RLF    79,F
0212:  RLF    78,F
0213:  DECF   77,F
0214:  GOTO   20E
0215:  BCF    78.7
*
022B:  MOVF   39,W
022C:  BTFSC  03.2
022D:  GOTO   2F0
022E:  MOVWF  4A
022F:  MOVF   3D,W
0230:  BTFSC  03.2
0231:  GOTO   2F0
0232:  SUBWF  4A,F
0233:  BTFSS  03.0
0234:  GOTO   23A
0235:  MOVLW  7F
0236:  ADDWF  4A,F
0237:  BTFSC  03.0
0238:  GOTO   2F0
0239:  GOTO   240
023A:  MOVLW  81
023B:  SUBWF  4A,F
023C:  BTFSS  03.0
023D:  GOTO   2F0
023E:  BTFSC  03.2
023F:  GOTO   2F0
0240:  MOVF   4A,W
0241:  MOVWF  77
0242:  CLRF   78
0243:  CLRF   79
0244:  CLRF   7A
0245:  CLRF   49
0246:  MOVF   3A,W
0247:  MOVWF  48
0248:  BSF    48.7
0249:  MOVF   3B,W
024A:  MOVWF  47
024B:  MOVF   3C,W
024C:  MOVWF  46
024D:  MOVLW  19
024E:  MOVWF  4A
024F:  MOVF   40,W
0250:  SUBWF  46,F
0251:  BTFSC  03.0
0252:  GOTO   263
0253:  MOVLW  01
0254:  SUBWF  47,F
0255:  BTFSC  03.0
0256:  GOTO   263
0257:  SUBWF  48,F
0258:  BTFSC  03.0
0259:  GOTO   263
025A:  SUBWF  49,F
025B:  BTFSC  03.0
025C:  GOTO   263
025D:  INCF   49,F
025E:  INCF   48,F
025F:  INCF   47,F
0260:  MOVF   40,W
0261:  ADDWF  46,F
0262:  GOTO   295
0263:  MOVF   3F,W
0264:  SUBWF  47,F
0265:  BTFSC  03.0
0266:  GOTO   27E
0267:  MOVLW  01
0268:  SUBWF  48,F
0269:  BTFSC  03.0
026A:  GOTO   27E
026B:  SUBWF  49,F
026C:  BTFSC  03.0
026D:  GOTO   27E
026E:  INCF   49,F
026F:  INCF   48,F
0270:  MOVF   3F,W
0271:  ADDWF  47,F
0272:  MOVF   40,W
0273:  ADDWF  46,F
0274:  BTFSS  03.0
0275:  GOTO   295
0276:  INCF   47,F
0277:  BTFSS  03.2
0278:  GOTO   295
0279:  INCF   48,F
027A:  BTFSS  03.2
027B:  GOTO   295
027C:  INCF   49,F
027D:  GOTO   295
027E:  MOVF   3E,W
027F:  IORLW  80
0280:  SUBWF  48,F
0281:  BTFSC  03.0
0282:  GOTO   294
0283:  MOVLW  01
0284:  SUBWF  49,F
0285:  BTFSC  03.0
0286:  GOTO   294
0287:  INCF   49,F
0288:  MOVF   3E,W
0289:  IORLW  80
028A:  ADDWF  48,F
028B:  MOVF   3F,W
028C:  ADDWF  47,F
028D:  BTFSS  03.0
028E:  GOTO   272
028F:  INCF   48,F
0290:  BTFSS  03.2
0291:  GOTO   272
0292:  INCF   49,F
0293:  GOTO   272
0294:  BSF    7A.0
0295:  DECFSZ 4A,F
0296:  GOTO   298
0297:  GOTO   2A3
0298:  BCF    03.0
0299:  RLF    46,F
029A:  RLF    47,F
029B:  RLF    48,F
029C:  RLF    49,F
029D:  BCF    03.0
029E:  RLF    7A,F
029F:  RLF    79,F
02A0:  RLF    78,F
02A1:  RLF    4B,F
02A2:  GOTO   24F
02A3:  BTFSS  4B.0
02A4:  GOTO   2AB
02A5:  BCF    03.0
02A6:  RRF    78,F
02A7:  RRF    79,F
02A8:  RRF    7A,F
02A9:  RRF    4B,F
02AA:  GOTO   2AE
02AB:  DECF   77,F
02AC:  BTFSC  03.2
02AD:  GOTO   2F0
02AE:  BTFSC  4B.7
02AF:  GOTO   2D7
02B0:  BCF    03.0
02B1:  RLF    46,F
02B2:  RLF    47,F
02B3:  RLF    48,F
02B4:  RLF    49,F
02B5:  MOVF   40,W
02B6:  SUBWF  46,F
02B7:  BTFSC  03.0
02B8:  GOTO   2C3
02B9:  MOVLW  01
02BA:  SUBWF  47,F
02BB:  BTFSC  03.0
02BC:  GOTO   2C3
02BD:  SUBWF  48,F
02BE:  BTFSC  03.0
02BF:  GOTO   2C3
02C0:  SUBWF  49,F
02C1:  BTFSS  03.0
02C2:  GOTO   2E6
02C3:  MOVF   3F,W
02C4:  SUBWF  47,F
02C5:  BTFSC  03.0
02C6:  GOTO   2CE
02C7:  MOVLW  01
02C8:  SUBWF  48,F
02C9:  BTFSC  03.0
02CA:  GOTO   2CE
02CB:  SUBWF  49,F
02CC:  BTFSS  03.0
02CD:  GOTO   2E6
02CE:  MOVF   3E,W
02CF:  IORLW  80
02D0:  SUBWF  48,F
02D1:  BTFSC  03.0
02D2:  GOTO   2D7
02D3:  MOVLW  01
02D4:  SUBWF  49,F
02D5:  BTFSS  03.0
02D6:  GOTO   2E6
02D7:  INCF   7A,F
02D8:  BTFSS  03.2
02D9:  GOTO   2E6
02DA:  INCF   79,F
02DB:  BTFSS  03.2
02DC:  GOTO   2E6
02DD:  INCF   78,F
02DE:  BTFSS  03.2
02DF:  GOTO   2E6
02E0:  INCF   77,F
02E1:  BTFSC  03.2
02E2:  GOTO   2F0
02E3:  RRF    78,F
02E4:  RRF    79,F
02E5:  RRF    7A,F
02E6:  MOVF   3A,W
02E7:  MOVWF  4A
02E8:  MOVF   3E,W
02E9:  XORWF  4A,F
02EA:  BTFSS  4A.7
02EB:  GOTO   2EE
02EC:  BSF    78.7
02ED:  GOTO   2F4
02EE:  BCF    78.7
02EF:  GOTO   2F4
02F0:  CLRF   77
02F1:  CLRF   78
02F2:  CLRF   79
02F3:  CLRF   7A
*
02F5:  BTFSC  03.1
02F6:  GOTO   2FB
02F7:  MOVLW  20
02F8:  MOVWF  05
02F9:  MOVLW  32
02FA:  MOVWF  04
02FB:  CLRF   77
02FC:  CLRF   78
02FD:  CLRF   79
02FE:  CLRF   7A
02FF:  CLRF   52
0300:  CLRF   53
0301:  CLRF   54
0302:  CLRF   55
0303:  MOVF   4F,W
0304:  IORWF  4E,W
0305:  IORWF  4D,W
0306:  IORWF  4C,W
0307:  BTFSC  03.2
0308:  GOTO   339
0309:  MOVLW  20
030A:  MOVWF  56
030B:  BCF    03.0
030C:  RLF    48,F
030D:  RLF    49,F
030E:  RLF    4A,F
030F:  RLF    4B,F
0310:  RLF    52,F
0311:  RLF    53,F
0312:  RLF    54,F
0313:  RLF    55,F
0314:  MOVF   4F,W
0315:  SUBWF  55,W
0316:  BTFSS  03.2
0317:  GOTO   322
0318:  MOVF   4E,W
0319:  SUBWF  54,W
031A:  BTFSS  03.2
031B:  GOTO   322
031C:  MOVF   4D,W
031D:  SUBWF  53,W
031E:  BTFSS  03.2
031F:  GOTO   322
0320:  MOVF   4C,W
0321:  SUBWF  52,W
0322:  BTFSS  03.0
0323:  GOTO   333
0324:  MOVF   4C,W
0325:  SUBWF  52,F
0326:  MOVF   4D,W
0327:  BTFSS  03.0
0328:  INCFSZ 4D,W
0329:  SUBWF  53,F
032A:  MOVF   4E,W
032B:  BTFSS  03.0
032C:  INCFSZ 4E,W
032D:  SUBWF  54,F
032E:  MOVF   4F,W
032F:  BTFSS  03.0
0330:  INCFSZ 4F,W
0331:  SUBWF  55,F
0332:  BSF    03.0
0333:  RLF    77,F
0334:  RLF    78,F
0335:  RLF    79,F
0336:  RLF    7A,F
0337:  DECFSZ 56,F
0338:  GOTO   30B
0339:  MOVF   52,W
033A:  MOVWF  00
033B:  MOVF   53,W
033C:  MOVWI  W,[FSR0+01]
033D:  MOVF   54,W
033E:  MOVWI  W,[FSR0+02]
033F:  MOVF   55,W
0340:  MOVWI  W,[FSR0+03]
0341:  RETURN
0342:  MOVF   04,W
0343:  MOVWF  40
0344:  MOVLW  3B
0345:  MOVWF  47
0346:  MOVLW  9A
0347:  MOVWF  46
0348:  MOVLW  CA
0349:  MOVWF  45
034A:  CLRF   44
034B:  MOVLW  0A
034C:  MOVWF  42
034D:  BSF    03.1
034E:  MOVLW  20
034F:  MOVWF  05
0350:  MOVLW  16
0351:  MOVWF  04
0352:  MOVF   39,W
0353:  MOVWF  4B
0354:  MOVF   38,W
0355:  MOVWF  4A
0356:  MOVF   37,W
0357:  MOVWF  49
0358:  MOVF   36,W
0359:  MOVWF  48
035A:  MOVF   47,W
035B:  MOVWF  4F
035C:  MOVF   46,W
035D:  MOVWF  4E
035E:  MOVF   45,W
035F:  MOVWF  4D
0360:  MOVF   44,W
0361:  MOVWF  4C
0362:  CALL   2F5
0363:  MOVF   78,W
0364:  MOVF   77,F
0365:  BTFSS  03.2
0366:  GOTO   37A
0367:  MOVF   42,W
0368:  XORLW  01
0369:  BTFSC  03.2
036A:  GOTO   37A
036B:  MOVF   40,W
036C:  BTFSC  03.2
036D:  GOTO   37B
036E:  ANDLW  0F
036F:  SUBWF  42,W
0370:  BTFSC  03.2
0371:  GOTO   374
0372:  BTFSC  03.0
0373:  GOTO   380
0374:  BTFSC  40.7
0375:  GOTO   380
0376:  BTFSC  40.6
0377:  GOTO   37B
0378:  MOVLW  20
0379:  GOTO   37C
037A:  CLRF   40
037B:  MOVLW  30
037C:  ADDWF  77,F
037D:  MOVF   77,W
037E:  MOVWF  48
037F:  CALL   183
0380:  BCF    03.1
0381:  MOVF   47,W
0382:  MOVWF  4B
0383:  MOVF   46,W
0384:  MOVWF  4A
0385:  MOVF   45,W
0386:  MOVWF  49
0387:  MOVF   44,W
0388:  MOVWF  48
0389:  CLRF   4F
038A:  CLRF   4E
038B:  CLRF   4D
038C:  MOVLW  0A
038D:  MOVWF  4C
038E:  CALL   2F5
038F:  MOVF   7A,W
0390:  MOVWF  47
0391:  MOVF   79,W
0392:  MOVWF  46
0393:  MOVF   78,W
0394:  MOVWF  45
0395:  MOVF   77,W
0396:  MOVWF  44
0397:  DECFSZ 42,F
0398:  GOTO   34D
0399:  RETURN
.................... 
.................... #list
.................... 
.................... #device ADC=10
.................... #use delay(internal=4MHz)
*
003C:  MOVLW  20
003D:  MOVWF  05
003E:  MOVLW  29
003F:  MOVWF  04
0040:  MOVF   00,W
0041:  BTFSC  03.2
0042:  GOTO   051
0043:  MOVLW  01
0044:  MOVWF  78
0045:  CLRF   77
0046:  DECFSZ 77,F
0047:  GOTO   046
0048:  DECFSZ 78,F
0049:  GOTO   045
004A:  MOVLW  4A
004B:  MOVWF  77
004C:  DECFSZ 77,F
004D:  GOTO   04C
004E:  GOTO   04F
004F:  DECFSZ 00,F
0050:  GOTO   043
0051:  RETURN
.................... 
.................... 
.................... 
.................... #fuses INTRC_IO   // Oscilador interno con pines RA6 y RA7 como GPIO
.................... #fuses NOMCLR     // Desactivo el MCLR
.................... #fuses NOWDT      // Desactivo el watchdog
.................... 
.................... /*****************************************************************************
....................  * LCD
....................  ****************************************************************************/
.................... 
.................... #define LCD_ENABLE_PIN  PIN_A0
.................... #define LCD_RS_PIN      PIN_A1
.................... #define LCD_RW_PIN      PIN_A2 // CONECTADO A GND SI NO LO USAMOS
.................... #define LCD_DATA4       PIN_A3
.................... #define LCD_DATA5       PIN_A4
.................... #define LCD_DATA6       PIN_A7
.................... #define LCD_DATA7       PIN_A6
.................... 
.................... #include <lcd.c>
.................... ///////////////////////////////////////////////////////////////////////////////
.................... ////                             LCD.C                                     ////
.................... ////                 Driver for common LCD modules                         ////
.................... ////                                                                       ////
.................... ////  lcd_init()   Must be called before any other function.               ////
.................... ////                                                                       ////
.................... ////  lcd_putc(c)  Will display c on the next position of the LCD.         ////
.................... ////                 \a  Set cursor position to upper left                 ////
.................... ////                 \f  Clear display, set cursor to upper left           ////
.................... ////                 \n  Go to start of second line                        ////
.................... ////                 \b  Move back one position                            ////
.................... ////              If LCD_EXTENDED_NEWLINE is defined, the \n character     ////
.................... ////              will erase all remanining characters on the current      ////
.................... ////              line, and move the cursor to the beginning of the next   ////
.................... ////              line.                                                    ////
.................... ////              If LCD_EXTENDED_NEWLINE is defined, the \r character     ////
.................... ////              will move the cursor to the start of the current         ////
.................... ////              line.                                                    ////
.................... ////                                                                       ////
.................... ////  lcd_gotoxy(x,y) Set write position on LCD (upper left is 1,1)        ////
.................... ////                                                                       ////
.................... ////  lcd_getc(x,y)   Returns character at position x,y on LCD             ////
.................... ////                                                                       ////
.................... ////  lcd_cursor_on(int1 on)   Turn the cursor on (on=TRUE) or off         ////
.................... ////              (on=FALSE).                                              ////
.................... ////                                                                       ////
.................... ////  lcd_set_cgram_char(w, *p)   Write a custom character to the CGRAM.   ////
.................... ////                                                                       ////
.................... ////                                                                       ////
.................... ////  CONFIGURATION                                                        ////
.................... ////  The LCD can be configured in one of two ways: a.) port access or     ////
.................... ////  b.) pin access.  Port access requires the entire 7 bit interface     ////
.................... ////  connected to one GPIO port, and the data bits (D4:D7 of the LCD)     ////
.................... ////  connected to sequential pins on the GPIO.  Pin access                ////
.................... ////  has no requirements, all 7 bits of the control interface can         ////
.................... ////  can be connected to any GPIO using several ports.                    ////
.................... ////                                                                       ////
.................... ////  To use port access, #define LCD_DATA_PORT to the SFR location of     ////
.................... ////  of the GPIO port that holds the interface, -AND- edit LCD_PIN_MAP    ////
.................... ////  of this file to configure the pin order.  If you are using a         ////
.................... ////  baseline PIC (PCB), then LCD_OUTPUT_MAP and LCD_INPUT_MAP also must  ////
.................... ////  be defined.                                                          ////
.................... ////                                                                       ////
.................... ////  Example of port access:                                              ////
.................... ////     #define LCD_DATA_PORT getenv("SFR:PORTD")                         ////
.................... ////                                                                       ////
.................... ////  To use pin access, the following pins must be defined:               ////
.................... ////     LCD_ENABLE_PIN                                                    ////
.................... ////     LCD_RS_PIN                                                        ////
.................... ////     LCD_RW_PIN                                                        ////
.................... ////     LCD_DATA4                                                         ////
.................... ////     LCD_DATA5                                                         ////
.................... ////     LCD_DATA6                                                         ////
.................... ////     LCD_DATA7                                                         ////
.................... ////                                                                       ////
.................... ////  Example of pin access:                                               ////
.................... ////     #define LCD_ENABLE_PIN  PIN_E0                                    ////
.................... ////     #define LCD_RS_PIN      PIN_E1                                    ////
.................... ////     #define LCD_RW_PIN      PIN_E2                                    ////
.................... ////     #define LCD_DATA4       PIN_D4                                    ////
.................... ////     #define LCD_DATA5       PIN_D5                                    ////
.................... ////     #define LCD_DATA6       PIN_D6                                    ////
.................... ////     #define LCD_DATA7       PIN_D7                                    ////
.................... ////                                                                       ////
.................... ///////////////////////////////////////////////////////////////////////////////
.................... ////        (C) Copyright 1996,2010 Custom Computer Services           ////
.................... //// This source code may only be used by licensed users of the CCS C  ////
.................... //// compiler.  This source code may only be distributed to other      ////
.................... //// licensed users of the CCS C compiler.  No other use, reproduction ////
.................... //// or distribution is permitted without written permission.          ////
.................... //// Derivative programs created using this software in object code    ////
.................... //// form are not restricted in any way.                               ////
.................... ///////////////////////////////////////////////////////////////////////////
.................... 
.................... #ifndef __LCD_C__
.................... #define __LCD_C__
.................... 
.................... // define the pinout.
.................... // only required if port access is being used.
.................... typedef struct  
.................... {                            // This structure is overlayed
....................    int1 enable;           // on to an I/O port to gain
....................    int1 rs;               // access to the LCD pins.
....................    int1 rw;               // The bits are allocated from
....................    int1 unused;           // low order up.  ENABLE will
....................    unsigned int     data : 4;         // be LSB pin of that port.
....................   #if defined(__PCD__)       // The port used will be LCD_DATA_PORT.
....................    unsigned int    reserved: 8;
....................   #endif
.................... } LCD_PIN_MAP;
.................... 
.................... // this is to improve compatability with previous LCD drivers that accepted
.................... // a define labeled 'use_portb_lcd' that configured the LCD onto port B.
.................... #if ((defined(use_portb_lcd)) && (use_portb_lcd==TRUE))
....................  #define LCD_DATA_PORT getenv("SFR:PORTB")
.................... #endif
.................... 
.................... #if defined(__PCB__)
....................    // these definitions only need to be modified for baseline PICs.
....................    // all other PICs use LCD_PIN_MAP or individual LCD_xxx pin definitions.
.................... /*                                    EN, RS,   RW,   UNUSED,  DATA  */
....................  const LCD_PIN_MAP LCD_OUTPUT_MAP =  {0,  0,    0,    0,       0};
....................  const LCD_PIN_MAP LCD_INPUT_MAP =   {0,  0,    0,    0,       0xF};
.................... #endif
.................... 
.................... ////////////////////// END CONFIGURATION ///////////////////////////////////
.................... 
.................... #ifndef LCD_ENABLE_PIN
....................    #define lcd_output_enable(x) lcdlat.enable=x
....................    #define lcd_enable_tris()   lcdtris.enable=0
.................... #else
....................    #define lcd_output_enable(x) output_bit(LCD_ENABLE_PIN, x)
....................    #define lcd_enable_tris()  output_drive(LCD_ENABLE_PIN)
.................... #endif
.................... 
.................... #ifndef LCD_RS_PIN
....................    #define lcd_output_rs(x) lcdlat.rs=x
....................    #define lcd_rs_tris()   lcdtris.rs=0
.................... #else
....................    #define lcd_output_rs(x) output_bit(LCD_RS_PIN, x)
....................    #define lcd_rs_tris()  output_drive(LCD_RS_PIN)
.................... #endif
.................... 
.................... #ifndef LCD_RW_PIN
....................    #define lcd_output_rw(x) lcdlat.rw=x
....................    #define lcd_rw_tris()   lcdtris.rw=0
.................... #else
....................    #define lcd_output_rw(x) output_bit(LCD_RW_PIN, x)
....................    #define lcd_rw_tris()  output_drive(LCD_RW_PIN)
.................... #endif
.................... 
.................... // original version of this library incorrectly labeled LCD_DATA0 as LCD_DATA4,
.................... // LCD_DATA1 as LCD_DATA5, and so on.  this block of code makes the driver
.................... // compatible with any code written for the original library
.................... #if (defined(LCD_DATA0) && defined(LCD_DATA1) && defined(LCD_DATA2) && defined(LCD_DATA3) && !defined(LCD_DATA4) && !defined(LCD_DATA5) && !defined(LCD_DATA6) && !defined(LCD_DATA7))
....................    #define  LCD_DATA4    LCD_DATA0
....................    #define  LCD_DATA5    LCD_DATA1
....................    #define  LCD_DATA6    LCD_DATA2
....................    #define  LCD_DATA7    LCD_DATA3
.................... #endif
.................... 
.................... #ifndef LCD_DATA4
.................... #ifndef LCD_DATA_PORT
....................    #if defined(__PCB__)
....................       #define LCD_DATA_PORT      0x06     //portb
....................       #define set_tris_lcd(x)   set_tris_b(x)
....................    #else
....................      #if defined(PIN_D0)
....................       #define LCD_DATA_PORT      getenv("SFR:PORTD")     //portd
....................      #else
....................       #define LCD_DATA_PORT      getenv("SFR:PORTB")     //portb
....................      #endif
....................    #endif   
.................... #endif
.................... 
.................... #if defined(__PCB__)
....................    LCD_PIN_MAP lcd, lcdlat;
....................    #byte lcd = LCD_DATA_PORT
....................    #byte lcdlat = LCD_DATA_PORT
.................... #elif defined(__PCM__)
....................    LCD_PIN_MAP lcd, lcdlat, lcdtris;
....................    #byte lcd = LCD_DATA_PORT
....................    #byte lcdlat = LCD_DATA_PORT
....................    #byte lcdtris = LCD_DATA_PORT+0x80
.................... #elif defined(__PCH__)
....................    LCD_PIN_MAP lcd, lcdlat, lcdtris;
....................    #byte lcd = LCD_DATA_PORT
....................    #byte lcdlat = LCD_DATA_PORT+9
....................    #byte lcdtris = LCD_DATA_PORT+0x12
.................... #elif defined(__PCD__)
....................    LCD_PIN_MAP lcd, lcdlat, lcdtris;
....................    #word lcd = LCD_DATA_PORT
....................    #word lcdlat = LCD_DATA_PORT+2
....................    #word lcdtris = LCD_DATA_PORT-0x02
.................... #endif
.................... #endif   //LCD_DATA4 not defined
.................... 
.................... #ifndef LCD_TYPE
....................    #define LCD_TYPE 2           // 0=5x7, 1=5x10, 2=2 lines
.................... #endif
.................... 
.................... #ifndef LCD_LINE_TWO
....................    #define LCD_LINE_TWO 0x40    // LCD RAM address for the second line
.................... #endif
.................... 
.................... #ifndef LCD_LINE_LENGTH
....................    #define LCD_LINE_LENGTH 20
.................... #endif
.................... 
.................... unsigned int8 lcd_read_nibble(void);
.................... 
.................... unsigned int8 lcd_read_byte(void)
.................... {
....................    unsigned int8 low,high;
.................... 
....................  #if defined(__PCB__)
....................    set_tris_lcd(LCD_INPUT_MAP);
....................  #else
....................   #if (defined(LCD_DATA4) && defined(LCD_DATA5) && defined(LCD_DATA6) && defined(LCD_DATA7))
....................    output_float(LCD_DATA4);
*
00C2:  BSF    0C.3
....................    output_float(LCD_DATA5);
00C3:  BSF    0C.4
....................    output_float(LCD_DATA6);
00C4:  BSF    0C.7
....................    output_float(LCD_DATA7);
00C5:  BSF    0C.6
....................   #else
....................    lcdtris.data = 0xF;
....................   #endif
....................  #endif
....................         
....................    lcd_output_rw(1);
00C6:  MOVLB  02
00C7:  BSF    0C.2
00C8:  MOVLB  01
00C9:  BCF    0C.2
....................    delay_cycles(1);
00CA:  NOP
....................    lcd_output_enable(1);
00CB:  MOVLB  02
00CC:  BSF    0C.0
00CD:  MOVLB  01
00CE:  BCF    0C.0
....................    delay_cycles(1);
00CF:  NOP
....................    high = lcd_read_nibble();
00D0:  MOVLB  00
00D1:  CALL   089
00D2:  MOVF   78,W
00D3:  MOVWF  50
....................       
....................    lcd_output_enable(0);
00D4:  MOVLB  02
00D5:  BCF    0C.0
00D6:  MOVLB  01
00D7:  BCF    0C.0
....................    delay_cycles(1);
00D8:  NOP
....................    lcd_output_enable(1);
00D9:  MOVLB  02
00DA:  BSF    0C.0
00DB:  MOVLB  01
00DC:  BCF    0C.0
....................    delay_us(1);
00DD:  NOP
....................    low = lcd_read_nibble();
00DE:  MOVLB  00
00DF:  CALL   089
00E0:  MOVF   78,W
00E1:  MOVWF  4F
....................       
....................    lcd_output_enable(0);
00E2:  MOVLB  02
00E3:  BCF    0C.0
00E4:  MOVLB  01
00E5:  BCF    0C.0
.................... 
....................  #if defined(__PCB__)
....................    set_tris_lcd(LCD_OUTPUT_MAP);
....................  #else
....................   #if (defined(LCD_DATA4) && defined(LCD_DATA5) && defined(LCD_DATA6) && defined(LCD_DATA7))
....................    output_drive(LCD_DATA4);
00E6:  BCF    0C.3
....................    output_drive(LCD_DATA5);
00E7:  BCF    0C.4
....................    output_drive(LCD_DATA6);
00E8:  BCF    0C.7
....................    output_drive(LCD_DATA7);
00E9:  BCF    0C.6
....................   #else
....................    lcdtris.data = 0x0;
....................   #endif
....................  #endif
.................... 
....................    return( (high<<4) | low);
00EA:  MOVLB  00
00EB:  SWAPF  50,W
00EC:  MOVWF  77
00ED:  MOVLW  F0
00EE:  ANDWF  77,F
00EF:  MOVF   77,W
00F0:  IORWF  4F,W
00F1:  MOVWF  78
.................... }
.................... 
.................... unsigned int8 lcd_read_nibble(void)
.................... {
....................   #if (defined(LCD_DATA4) && defined(LCD_DATA5) && defined(LCD_DATA6) && defined(LCD_DATA7))
*
0089:  CLRF   51
....................    unsigned int8 n = 0x00;
.................... 
....................    /* Read the data port */
....................    n |= input(LCD_DATA4);
008A:  MOVLB  01
008B:  BSF    0C.3
008C:  MOVLW  00
008D:  MOVLB  00
008E:  BTFSC  0C.3
008F:  MOVLW  01
0090:  IORWF  51,F
....................    n |= input(LCD_DATA5) << 1;
0091:  MOVLB  01
0092:  BSF    0C.4
0093:  MOVLW  00
0094:  MOVLB  00
0095:  BTFSC  0C.4
0096:  MOVLW  01
0097:  MOVWF  77
0098:  BCF    03.0
0099:  RLF    77,F
009A:  MOVF   77,W
009B:  IORWF  51,F
....................    n |= input(LCD_DATA6) << 2;
009C:  MOVLB  01
009D:  BSF    0C.7
009E:  MOVLW  00
009F:  MOVLB  00
00A0:  BTFSC  0C.7
00A1:  MOVLW  01
00A2:  MOVWF  77
00A3:  RLF    77,F
00A4:  RLF    77,F
00A5:  MOVLW  FC
00A6:  ANDWF  77,F
00A7:  MOVF   77,W
00A8:  IORWF  51,F
....................    n |= input(LCD_DATA7) << 3;
00A9:  MOVLB  01
00AA:  BSF    0C.6
00AB:  MOVLW  00
00AC:  MOVLB  00
00AD:  BTFSC  0C.6
00AE:  MOVLW  01
00AF:  MOVWF  77
00B0:  RLF    77,F
00B1:  RLF    77,F
00B2:  RLF    77,F
00B3:  MOVLW  F8
00B4:  ANDWF  77,F
00B5:  MOVF   77,W
00B6:  IORWF  51,F
....................    
....................    return(n);
00B7:  MOVF   51,W
00B8:  MOVWF  78
....................   #else
00B9:  RETURN
....................    return(lcd.data);
....................   #endif
.................... }
.................... 
.................... void lcd_send_nibble(unsigned int8 n)
.................... {
....................   #if (defined(LCD_DATA4) && defined(LCD_DATA5) && defined(LCD_DATA6) && defined(LCD_DATA7))
....................    /* Write to the data port */
....................    output_bit(LCD_DATA4, bit_test(n, 0));
*
0052:  BTFSC  50.0
0053:  GOTO   058
0054:  MOVLB  02
0055:  BCF    0C.3
0056:  GOTO   05A
0057:  MOVLB  00
0058:  MOVLB  02
0059:  BSF    0C.3
005A:  MOVLB  01
005B:  BCF    0C.3
....................    output_bit(LCD_DATA5, bit_test(n, 1));
005C:  MOVLB  00
005D:  BTFSC  50.1
005E:  GOTO   063
005F:  MOVLB  02
0060:  BCF    0C.4
0061:  GOTO   065
0062:  MOVLB  00
0063:  MOVLB  02
0064:  BSF    0C.4
0065:  MOVLB  01
0066:  BCF    0C.4
....................    output_bit(LCD_DATA6, bit_test(n, 2));
0067:  MOVLB  00
0068:  BTFSC  50.2
0069:  GOTO   06E
006A:  MOVLB  02
006B:  BCF    0C.7
006C:  GOTO   070
006D:  MOVLB  00
006E:  MOVLB  02
006F:  BSF    0C.7
0070:  MOVLB  01
0071:  BCF    0C.7
....................    output_bit(LCD_DATA7, bit_test(n, 3));
0072:  MOVLB  00
0073:  BTFSC  50.3
0074:  GOTO   079
0075:  MOVLB  02
0076:  BCF    0C.6
0077:  GOTO   07B
0078:  MOVLB  00
0079:  MOVLB  02
007A:  BSF    0C.6
007B:  MOVLB  01
007C:  BCF    0C.6
....................   #else      
....................    lcdlat.data = n;
....................   #endif
....................       
....................    delay_cycles(1);
007D:  NOP
....................    lcd_output_enable(1);
007E:  MOVLB  02
007F:  BSF    0C.0
0080:  MOVLB  01
0081:  BCF    0C.0
....................    delay_us(2);
0082:  GOTO   083
....................    lcd_output_enable(0);
0083:  MOVLB  02
0084:  BCF    0C.0
0085:  MOVLB  01
0086:  BCF    0C.0
0087:  MOVLB  00
0088:  RETURN
.................... }
.................... 
.................... void lcd_send_byte(unsigned int8 address, unsigned int8 n)
.................... {
....................   #if defined(__PCB__)
....................    set_tris_lcd(LCD_OUTPUT_MAP);
....................   #else
....................    lcd_enable_tris();
*
00BA:  MOVLB  01
00BB:  BCF    0C.0
....................    lcd_rs_tris();
00BC:  BCF    0C.1
....................    lcd_rw_tris();
00BD:  BCF    0C.2
....................   #endif
.................... 
....................    lcd_output_rs(0);
00BE:  MOVLB  02
00BF:  BCF    0C.1
00C0:  MOVLB  01
00C1:  BCF    0C.1
....................    while ( bit_test(lcd_read_byte(),7) ) ;
*
00F2:  MOVF   78,W
00F3:  MOVWF  4F
00F4:  BTFSS  4F.7
00F5:  GOTO   0F8
00F6:  MOVLB  01
00F7:  GOTO   0C2
....................    lcd_output_rs(address);
00F8:  MOVF   4D,F
00F9:  BTFSS  03.2
00FA:  GOTO   0FF
00FB:  MOVLB  02
00FC:  BCF    0C.1
00FD:  GOTO   101
00FE:  MOVLB  00
00FF:  MOVLB  02
0100:  BSF    0C.1
0101:  MOVLB  01
0102:  BCF    0C.1
....................    delay_cycles(1);
0103:  NOP
....................    lcd_output_rw(0);
0104:  MOVLB  02
0105:  BCF    0C.2
0106:  MOVLB  01
0107:  BCF    0C.2
....................    delay_cycles(1);
0108:  NOP
....................    lcd_output_enable(0);
0109:  MOVLB  02
010A:  BCF    0C.0
010B:  MOVLB  01
010C:  BCF    0C.0
....................    lcd_send_nibble(n >> 4);
010D:  MOVLB  00
010E:  SWAPF  4E,W
010F:  MOVWF  4F
0110:  MOVLW  0F
0111:  ANDWF  4F,F
0112:  MOVF   4F,W
0113:  MOVWF  50
0114:  CALL   052
....................    lcd_send_nibble(n & 0xf);
0115:  MOVF   4E,W
0116:  ANDLW  0F
0117:  MOVWF  4F
0118:  MOVWF  50
0119:  CALL   052
011A:  RETURN
.................... }
.................... 
.................... #if defined(LCD_EXTENDED_NEWLINE)
.................... unsigned int8 g_LcdX, g_LcdY;
.................... #endif
.................... 
.................... void lcd_init(void) 
.................... {
....................    unsigned int8 i;
....................    unsigned int8 LCD_INIT_STRING[4] = {0x20 | (LCD_TYPE << 2), 0xc, 1, 6};
011B:  MOVLW  28
011C:  MOVWF  37
011D:  MOVLW  0C
011E:  MOVWF  38
011F:  MOVLW  01
0120:  MOVWF  39
0121:  MOVLW  06
0122:  MOVWF  3A
....................                              // These bytes need to be sent to the LCD
....................                              // to start it up.
....................    
.................... 
....................    lcd_output_enable(0);
0123:  MOVLB  02
0124:  BCF    0C.0
0125:  MOVLB  01
0126:  BCF    0C.0
....................    lcd_output_rs(0);
0127:  MOVLB  02
0128:  BCF    0C.1
0129:  MOVLB  01
012A:  BCF    0C.1
....................    lcd_output_rw(0);
012B:  MOVLB  02
012C:  BCF    0C.2
012D:  MOVLB  01
012E:  BCF    0C.2
.................... 
....................  #if defined(__PCB__)
....................    set_tris_lcd(LCD_OUTPUT_MAP);
....................  #else
....................   #if (defined(LCD_DATA4) && defined(LCD_DATA5) && defined(LCD_DATA6) && defined(LCD_DATA7))
....................    output_drive(LCD_DATA4);
012F:  BCF    0C.3
....................    output_drive(LCD_DATA5);
0130:  BCF    0C.4
....................    output_drive(LCD_DATA6);
0131:  BCF    0C.7
....................    output_drive(LCD_DATA7);
0132:  BCF    0C.6
....................   #else
....................    lcdtris.data = 0x0;
....................   #endif
....................    lcd_enable_tris();
0133:  BCF    0C.0
....................    lcd_rs_tris();
0134:  BCF    0C.1
....................    lcd_rw_tris();
0135:  BCF    0C.2
....................  #endif
....................     
....................    delay_ms(15);
0136:  MOVLW  0F
0137:  MOVLB  00
0138:  MOVWF  49
0139:  CALL   03C
....................    for(i=1;i<=3;++i)
013A:  MOVLW  01
013B:  MOVWF  36
013C:  MOVF   36,W
013D:  SUBLW  03
013E:  BTFSS  03.0
013F:  GOTO   148
....................    {
....................        lcd_send_nibble(3);
0140:  MOVLW  03
0141:  MOVWF  50
0142:  CALL   052
....................        delay_ms(5);
0143:  MOVLW  05
0144:  MOVWF  49
0145:  CALL   03C
0146:  INCF   36,F
0147:  GOTO   13C
....................    }
....................    
....................    lcd_send_nibble(2);
0148:  MOVLW  02
0149:  MOVWF  50
014A:  CALL   052
....................    delay_ms(5);
014B:  MOVLW  05
014C:  MOVWF  49
014D:  CALL   03C
....................    for(i=0;i<=3;++i)
014E:  CLRF   36
014F:  MOVF   36,W
0150:  SUBLW  03
0151:  BTFSS  03.0
0152:  GOTO   162
....................       lcd_send_byte(0,LCD_INIT_STRING[i]);
0153:  MOVLW  17
0154:  ADDWF  36,W
0155:  MOVWF  04
0156:  MOVLW  20
0157:  MOVWF  05
0158:  BTFSC  03.0
0159:  INCF   05,F
015A:  MOVF   00,W
015B:  MOVWF  3B
015C:  CLRF   4D
015D:  MOVF   3B,W
015E:  MOVWF  4E
015F:  CALL   0BA
.................... 
....................   #if defined(LCD_EXTENDED_NEWLINE)
0160:  INCF   36,F
0161:  GOTO   14F
0162:  MOVLP  00
0163:  GOTO   3C7 (RETURN)
....................    g_LcdX = 0;
....................    g_LcdY = 0;
....................   #endif
.................... }
.................... 
.................... void lcd_gotoxy(unsigned int8 x, unsigned int8 y)
.................... {
....................    unsigned int8 address;
....................    
....................    if(y!=1)
*
0171:  DECFSZ 4A,W
0172:  GOTO   174
0173:  GOTO   177
....................       address=LCD_LINE_TWO;
0174:  MOVLW  40
0175:  MOVWF  4B
0176:  GOTO   178
....................    else
....................       address=0;
0177:  CLRF   4B
....................      
....................    address+=x-1;
0178:  MOVLW  01
0179:  SUBWF  49,W
017A:  ADDWF  4B,F
....................    lcd_send_byte(0,0x80|address);
017B:  MOVF   4B,W
017C:  IORLW  80
017D:  MOVWF  4C
017E:  CLRF   4D
017F:  MOVF   4C,W
0180:  MOVWF  4E
0181:  CALL   0BA
.................... 
....................   #if defined(LCD_EXTENDED_NEWLINE)
0182:  RETURN
....................    g_LcdX = x - 1;
....................    g_LcdY = y - 1;
....................   #endif
.................... }
.................... 
.................... void lcd_putc(char c)
.................... {
....................    switch (c)
0183:  MOVF   48,W
0184:  XORLW  07
0185:  BTFSC  03.2
0186:  GOTO   191
0187:  XORLW  0B
0188:  BTFSC  03.2
0189:  GOTO   196
018A:  XORLW  06
018B:  BTFSC  03.2
018C:  GOTO   19E
018D:  XORLW  02
018E:  BTFSC  03.2
018F:  GOTO   1A4
0190:  GOTO   1A9
....................    {
....................       case '\a'   :  lcd_gotoxy(1,1);     break;
0191:  MOVLW  01
0192:  MOVWF  49
0193:  MOVWF  4A
0194:  CALL   171
0195:  GOTO   1AE
.................... 
....................       case '\f'   :  lcd_send_byte(0,1);
0196:  CLRF   4D
0197:  MOVLW  01
0198:  MOVWF  4E
0199:  CALL   0BA
....................                      delay_ms(2);
019A:  MOVLW  02
019B:  MOVWF  49
019C:  CALL   03C
....................                     #if defined(LCD_EXTENDED_NEWLINE)
....................                      g_LcdX = 0;
....................                      g_LcdY = 0;
....................                     #endif
....................                      break;
019D:  GOTO   1AE
.................... 
....................      #if defined(LCD_EXTENDED_NEWLINE)
....................       case '\r'   :  lcd_gotoxy(1, g_LcdY+1);   break;
....................       case '\n'   :
....................          while (g_LcdX++ < LCD_LINE_LENGTH)
....................          {
....................             lcd_send_byte(1, ' ');
....................          }
....................          lcd_gotoxy(1, g_LcdY+2);
....................          break;
....................      #else
....................       case '\n'   : lcd_gotoxy(1,2);        break;
019E:  MOVLW  01
019F:  MOVWF  49
01A0:  MOVLW  02
01A1:  MOVWF  4A
01A2:  CALL   171
01A3:  GOTO   1AE
....................      #endif
....................      
....................       case '\b'   : lcd_send_byte(0,0x10);  break;
01A4:  CLRF   4D
01A5:  MOVLW  10
01A6:  MOVWF  4E
01A7:  CALL   0BA
01A8:  GOTO   1AE
....................      
....................      #if defined(LCD_EXTENDED_NEWLINE)
....................       default     : 
....................          if (g_LcdX < LCD_LINE_LENGTH)
....................          {
....................             lcd_send_byte(1, c);
....................             g_LcdX++;
....................          }
....................          break;
....................      #else
....................       default     : lcd_send_byte(1,c);     break;
01A9:  MOVLW  01
01AA:  MOVWF  4D
01AB:  MOVF   48,W
01AC:  MOVWF  4E
01AD:  CALL   0BA
....................      #endif
....................    }
01AE:  RETURN
.................... }
....................  
.................... char lcd_getc(unsigned int8 x, unsigned int8 y)
.................... {
....................    char value;
.................... 
....................    lcd_gotoxy(x,y);
....................    while ( bit_test(lcd_read_byte(),7) ); // wait until busy flag is low
....................    lcd_output_rs(1);
....................    value = lcd_read_byte();
....................    lcd_output_rs(0);
....................    
....................    return(value);
.................... }
.................... 
.................... // write a custom character to the ram
.................... // which is 0-7 and specifies which character array we are modifying.
.................... // ptr points to an array of 8 bytes, where each byte is the next row of
.................... //    pixels.  only bits 0-4 are used.  the last row is the cursor row, and
.................... //    usually you will want to leave this byte 0x00.
.................... void lcd_set_cgram_char(unsigned int8 which, unsigned int8 *ptr)
.................... {
....................    unsigned int i;
.................... 
....................    which <<= 3;
....................    which &= 0x38;
.................... 
....................    lcd_send_byte(0, 0x40 | which);  //set cgram address
.................... 
....................    for(i=0; i<8; i++)
....................    {
....................       lcd_send_byte(1, *ptr++);
....................    }
....................   
....................    #if defined(LCD_EXTENDED_NEWLINE)
....................     lcd_gotoxy(g_LcdX+1, g_LcdY+1);  //set ddram address
....................    #endif
.................... }
.................... 
.................... void lcd_cursor_on(int1 on)
.................... {
....................    if (on)
....................    {
....................       lcd_send_byte(0,0x0F);           //turn LCD cursor ON
....................    }
....................    else
....................    {
....................       lcd_send_byte(0,0x0C);           //turn LCD cursor OFF
....................    }
.................... }
.................... 
.................... #endif
.................... 
.................... 
.................... /*****************************************************************************
....................  * I2C
....................  ****************************************************************************/
.................... #define MAX128_ADDR_W 0x52 // Direccion I2C del MAX128 (Write)
.................... #define MAX128_ADDR_R 0x53 // Direccion I2C del MAX128 (Read)
.................... 
.................... #use i2c(MASTER, SCL=PIN_B4, SDA=PIN_B1, FAST=400) // Configuración I2C
01AF:  MOVLB  04
01B0:  BCF    15.7
01B1:  MOVLB  00
01B2:  BCF    11.3
01B3:  MOVF   39,W
01B4:  MOVLB  04
01B5:  MOVWF  11
01B6:  MOVLW  02
01B7:  BTFSC  15.7
01B8:  GOTO   1C0
01B9:  MOVLB  00
01BA:  BTFSS  11.3
01BB:  GOTO   1BA
01BC:  MOVLW  00
01BD:  MOVLB  04
01BE:  BTFSC  16.6
01BF:  MOVLW  01
01C0:  MOVWF  78
01C1:  MOVLB  00
01C2:  RETURN
01C3:  MOVLB  04
01C4:  BCF    15.6
01C5:  BSF    16.3
01C6:  BTFSC  16.3
01C7:  GOTO   1C6
01C8:  BTFSC  77.0
01C9:  BCF    16.5
01CA:  BTFSS  77.0
01CB:  BSF    16.5
01CC:  BSF    16.4
01CD:  BTFSC  16.4
01CE:  GOTO   1CD
01CF:  MOVF   11,W
01D0:  MOVWF  78
01D1:  MOVLB  00
01D2:  RETURN
.................... 
.................... /*****************************************************************************
....................  * Funciones de Inicializacion de Perifericos
....................  ****************************************************************************/
.................... 
.................... void InitTimer0(void);
.................... void Init_GPIO(void);
.................... double leer_max128_channel(int channel);
.................... 
.................... 
.................... /*****************************************************************************
.................... * Variables globales
.................... ****************************************************************************/
.................... 
.................... /* ADC */
.................... double resultado_adc = 0;
.................... double dx_val = 0;
.................... double dy_val = 0;
.................... double dz_val = 0;
.................... 
.................... /* TIMER 0 */
.................... int contador_ms = 0;
.................... int flag_segundo = 0;
.................... 
.................... /*****************************************************************************
.................... * Interrupciones
.................... ****************************************************************************/
.................... 
.................... #INT_TIMER0 // ACA ESCRIBO QUÉ DEBO HACER EN CADA INTERRUPCIÓN
.................... void Timer0_ISR() {
....................   
....................   set_timer0(61); // 50 ms
*
001E:  MOVLW  3D
001F:  MOVWF  15
....................   
....................   if(contador_ms >= 4) { //PASO 200 ms
0020:  MOVF   34,W
0021:  SUBLW  03
0022:  BTFSC  03.0
0023:  GOTO   027
....................        contador_ms = 0;
0024:  CLRF   34
....................        flag_segundo = 1; // aviso que ya pasó el tiempo deseado
0025:  MOVLW  01
0026:  MOVWF  35
....................    }
....................    contador_ms++;
0027:  INCF   34,F
0028:  BCF    0B.2
0029:  MOVLP  00
002A:  GOTO   013
.................... }
.................... 
.................... 
.................... /*****************************************************************************
.................... * Funciones
.................... ****************************************************************************/
.................... 
.................... void main()
*
039A:  MOVLW  6A
039B:  MOVLB  01
039C:  MOVWF  19
039D:  BSF    0D.4
039E:  BSF    0D.1
039F:  MOVLB  04
03A0:  BCF    17.0
03A1:  BCF    17.1
03A2:  BCF    17.3
03A3:  MOVLW  FF
03A4:  MOVWF  12
03A5:  MOVLW  28
03A6:  MOVWF  15
03A7:  BSF    14.7
03A8:  BCF    14.6
03A9:  MOVLB  00
03AA:  CLRF   27
03AB:  CLRF   26
03AC:  CLRF   25
03AD:  CLRF   24
03AE:  CLRF   2B
03AF:  CLRF   2A
03B0:  CLRF   29
03B1:  CLRF   28
03B2:  CLRF   2F
03B3:  CLRF   2E
03B4:  CLRF   2D
03B5:  CLRF   2C
03B6:  CLRF   33
03B7:  CLRF   32
03B8:  CLRF   31
03B9:  CLRF   30
03BA:  CLRF   34
03BB:  CLRF   35
03BC:  MOVLB  03
03BD:  CLRF   0C
03BE:  CLRF   0D
03BF:  MOVLB  02
03C0:  CLRF   12
03C1:  CLRF   11
03C2:  CLRF   14
03C3:  CLRF   13
.................... {
....................    Init_GPIO();
03C4:  MOVLB  00
03C5:  GOTO   02B
....................    lcd_init();
03C6:  GOTO   11B
....................    InitTimer0();
03C7:  GOTO   164
....................    
....................    lcd_putc('\f');     
03C8:  MOVLW  0C
03C9:  MOVWF  48
03CA:  CALL   183
....................    lcd_gotoxy(1, 1);
03CB:  MOVLW  01
03CC:  MOVWF  49
03CD:  MOVWF  4A
03CE:  CALL   171
....................    printf(LCD_PUTC, "ADC"); 
03CF:  MOVLW  41
03D0:  MOVWF  48
03D1:  CALL   183
03D2:  MOVLW  44
03D3:  MOVWF  48
03D4:  CALL   183
03D5:  MOVLW  43
03D6:  MOVWF  48
03D7:  CALL   183
....................        
....................     while(TRUE) {
....................         if (flag_segundo == 1) {
03D8:  DECFSZ 35,W
03D9:  GOTO   45C
....................             dx_val = leer_max128_channel(0x8c); 
03DA:  MOVLW  8C
03DB:  MOVWF  36
03DC:  CALL   1D3
03DD:  MOVF   7A,W
03DE:  MOVWF  2B
03DF:  MOVF   79,W
03E0:  MOVWF  2A
03E1:  MOVF   78,W
03E2:  MOVWF  29
03E3:  MOVF   77,W
03E4:  MOVWF  28
....................             dy_val = leer_max128_channel(0xcc); 
03E5:  MOVLW  CC
03E6:  MOVWF  36
03E7:  CALL   1D3
03E8:  MOVF   7A,W
03E9:  MOVWF  2F
03EA:  MOVF   79,W
03EB:  MOVWF  2E
03EC:  MOVF   78,W
03ED:  MOVWF  2D
03EE:  MOVF   77,W
03EF:  MOVWF  2C
....................             dz_val = leer_max128_channel(0xfc);
03F0:  MOVLW  FC
03F1:  MOVWF  36
03F2:  CALL   1D3
03F3:  MOVF   7A,W
03F4:  MOVWF  33
03F5:  MOVF   79,W
03F6:  MOVWF  32
03F7:  MOVF   78,W
03F8:  MOVWF  31
03F9:  MOVF   77,W
03FA:  MOVWF  30
....................             // Actualización de LCD
....................             lcd_gotoxy(1, 2);
03FB:  MOVLW  01
03FC:  MOVWF  49
03FD:  MOVLW  02
03FE:  MOVWF  4A
03FF:  CALL   171
....................             printf(lcd_putc, "DX=%4lu", dx_val);
0400:  MOVLW  44
0401:  MOVWF  48
0402:  CALL   183
0403:  MOVLW  58
0404:  MOVWF  48
0405:  CALL   183
0406:  MOVLW  3D
0407:  MOVWF  48
0408:  CALL   183
0409:  MOVLW  04
040A:  MOVWF  04
040B:  MOVF   2B,W
040C:  MOVWF  39
040D:  MOVF   2A,W
040E:  MOVWF  38
040F:  MOVF   29,W
0410:  MOVWF  37
0411:  MOVF   28,W
0412:  MOVWF  36
0413:  CALL   342
....................             delay_ms(500);
0414:  MOVLW  02
0415:  MOVWF  36
0416:  MOVLW  FA
0417:  MOVWF  49
0418:  CALL   03C
0419:  DECFSZ 36,F
041A:  GOTO   416
....................             lcd_gotoxy(1, 2);
041B:  MOVLW  01
041C:  MOVWF  49
041D:  MOVLW  02
041E:  MOVWF  4A
041F:  CALL   171
....................             printf(lcd_putc, "DY=%4lu", dy_val);
0420:  MOVLW  44
0421:  MOVWF  48
0422:  CALL   183
0423:  MOVLW  59
0424:  MOVWF  48
0425:  CALL   183
0426:  MOVLW  3D
0427:  MOVWF  48
0428:  CALL   183
0429:  MOVLW  04
042A:  MOVWF  04
042B:  MOVF   2F,W
042C:  MOVWF  39
042D:  MOVF   2E,W
042E:  MOVWF  38
042F:  MOVF   2D,W
0430:  MOVWF  37
0431:  MOVF   2C,W
0432:  MOVWF  36
0433:  CALL   342
....................             delay_ms(500);
0434:  MOVLW  02
0435:  MOVWF  36
0436:  MOVLW  FA
0437:  MOVWF  49
0438:  CALL   03C
0439:  DECFSZ 36,F
043A:  GOTO   436
....................             lcd_gotoxy(1, 2);
043B:  MOVLW  01
043C:  MOVWF  49
043D:  MOVLW  02
043E:  MOVWF  4A
043F:  CALL   171
....................             printf(lcd_putc, "DZ=%4lu", dz_val);
0440:  MOVLW  44
0441:  MOVWF  48
0442:  CALL   183
0443:  MOVLW  5A
0444:  MOVWF  48
0445:  CALL   183
0446:  MOVLW  3D
0447:  MOVWF  48
0448:  CALL   183
0449:  MOVLW  04
044A:  MOVWF  04
044B:  MOVF   33,W
044C:  MOVWF  39
044D:  MOVF   32,W
044E:  MOVWF  38
044F:  MOVF   31,W
0450:  MOVWF  37
0451:  MOVF   30,W
0452:  MOVWF  36
0453:  CALL   342
....................             delay_ms(500);
0454:  MOVLW  02
0455:  MOVWF  36
0456:  MOVLW  FA
0457:  MOVWF  49
0458:  CALL   03C
0459:  DECFSZ 36,F
045A:  GOTO   456
....................             flag_segundo = 0; // Limpiar el flag
045B:  CLRF   35
....................             }
045C:  GOTO   3D8
....................     }
.................... }
.................... void InitTimer0(void) {
045D:  SLEEP
.................... 
....................     setup_timer_0(RTCC_INTERNAL|RTCC_DIV_256); // Configuro prescaler
*
0164:  MOVLB  01
0165:  MOVF   15,W
0166:  ANDLW  C0
0167:  IORLW  07
0168:  MOVWF  15
....................     set_timer0(61);               // Reinicio el timer 
0169:  MOVLW  3D
016A:  MOVLB  00
016B:  MOVWF  15
....................     enable_interrupts(INT_TIMER0);    // Activo Interrupcion timer0
016C:  BSF    0B.5
....................     enable_interrupts(GLOBAL);
016D:  MOVLW  C0
016E:  IORWF  0B,F
016F:  MOVLP  00
0170:  GOTO   3C8 (RETURN)
....................     
.................... }
.................... 
.................... void Init_GPIO()
.................... {   
....................    setup_adc_ports(NO_ANALOGS);
*
002B:  MOVLB  01
002C:  BCF    1E.0
002D:  BCF    1E.1
002E:  BCF    1E.2
002F:  MOVLW  00
0030:  MOVLB  03
0031:  MOVWF  0C
0032:  MOVWF  0D
....................    set_tris_a(0b00000000); 
0033:  MOVLB  01
0034:  MOVWF  0C
....................    set_tris_b(0b00010010);
0035:  MOVLW  12
0036:  MOVWF  0D
....................    
....................    enable_interrupts(GLOBAL);
0037:  MOVLW  C0
0038:  IORWF  0B,F
0039:  MOVLP  00
003A:  MOVLB  00
003B:  GOTO   3C6 (RETURN)
.................... }
.................... 
.................... // Funcion para leer un canal del MAX128 y devolver un valor de 12 bits (0-4095)
.................... double leer_max128_channel(int8 control_byte) {
....................     int8 msb, lsb; // Most y Least Significant Bit
.................... 
....................     //  Iniciar conversión
....................     i2c_start();
*
01D3:  MOVLB  04
01D4:  BSF    16.0
01D5:  BTFSC  16.0
01D6:  GOTO   1D5
....................     i2c_write(MAX128_ADDR_W);       // Dirección de escritura
01D7:  MOVLW  52
01D8:  MOVLB  00
01D9:  MOVWF  39
01DA:  CALL   1AF
....................     i2c_write(control_byte);   // Envío del byte de control
01DB:  MOVF   36,W
01DC:  MOVWF  39
01DD:  CALL   1AF
....................     i2c_start();
01DE:  MOVLB  04
01DF:  BSF    16.1
01E0:  BTFSC  16.1
01E1:  GOTO   1E0
....................     i2c_write(MAX128_ADDR_R);
01E2:  MOVLW  53
01E3:  MOVLB  00
01E4:  MOVWF  39
01E5:  CALL   1AF
....................     msb = i2c_read();
01E6:  MOVLW  01
01E7:  MOVWF  77
01E8:  CALL   1C3
01E9:  MOVF   78,W
01EA:  MOVWF  37
....................     lsb = i2c_read(0);
01EB:  CLRF   77
01EC:  CALL   1C3
01ED:  MOVF   78,W
01EE:  MOVWF  38
....................     i2c_stop();
01EF:  MOVLB  04
01F0:  BSF    16.2
01F1:  BTFSC  16.2
01F2:  GOTO   1F1
.................... 
....................     // Ensamblar y ajustar la justificación a 12 bits
....................     resultado_adc = make16(msb, lsb); // El valor devuelto es un entero que representa la lectura analógica ( son 8 de msb y 8 de lsb )
01F3:  MOVLB  00
01F4:  MOVF   37,W
01F5:  MOVWF  7A
01F6:  MOVF   38,W
01F7:  MOVWF  39
01F8:  MOVF   7A,W
01F9:  MOVWF  3A
*
0216:  MOVF   7A,W
0217:  MOVWF  27
0218:  MOVF   79,W
0219:  MOVWF  26
021A:  MOVF   78,W
021B:  MOVWF  25
021C:  MOVF   77,W
021D:  MOVWF  24
....................       return resultado_adc/16; // Desplaza el valor ensamblado 4 bits a la derecha para eliminar los 4 que sobran al final 
021E:  MOVF   27,W
021F:  MOVWF  3C
0220:  MOVF   26,W
0221:  MOVWF  3B
0222:  MOVF   25,W
0223:  MOVWF  3A
0224:  MOVF   24,W
0225:  MOVWF  39
0226:  CLRF   40
0227:  CLRF   3F
0228:  CLRF   3E
0229:  MOVLW  83
022A:  MOVWF  3D
*
02F4:  RETURN
.................... }
.................... 
.................... 

Configuration Fuses:
   Word  1: 3F84   INTRC_IO NOWDT PUT NOMCLR NOPROTECT NOCPD BROWNOUT NOCLKOUT IESO FCMEN
   Word  2: 1EFF   NOWRT PLL_SW STVREN BORV19 NODEBUG NOLVP
