CCS PCM C Compiler, Version 5.093, 4770               17-oct-25 18:53

               Filename:   C:\Users\MPF\Desktop\Electr-nica-Digital-2\Guia 3\Ejercicio 6\ejercicio6.lst

               ROM used:   1743 words (43%)
                           Largest free fragment is 2048
               RAM used:   20 (5%) at main() level
                           60 (16%) worst case
               Stack used: 5 locations (4 in main + 1 for interrupts)
               Stack size: 16

0000:  MOVLP  00
0001:  GOTO   654
0002:  NOP
*
0004:  CLRF   03
0005:  MOVLP  00
0006:  MOVLB  00
0007:  MOVF   77,W
0008:  MOVWF  20
0009:  MOVF   78,W
000A:  MOVWF  21
000B:  MOVF   79,W
000C:  MOVWF  22
000D:  MOVF   7A,W
000E:  MOVWF  23
000F:  MOVLB  03
0010:  MOVF   11,W
0011:  MOVLB  00
0012:  MOVWF  24
0013:  MOVLB  03
0014:  MOVF   12,W
0015:  MOVLB  00
0016:  MOVWF  25
0017:  MOVLB  03
0018:  MOVF   13,W
0019:  MOVLB  00
001A:  MOVWF  26
001B:  MOVLB  03
001C:  MOVF   14,W
001D:  MOVLB  00
001E:  MOVWF  27
001F:  BTFSS  0B.5
0020:  GOTO   023
0021:  BTFSC  0B.2
0022:  GOTO   03C
0023:  MOVF   20,W
0024:  MOVWF  77
0025:  MOVF   21,W
0026:  MOVWF  78
0027:  MOVF   22,W
0028:  MOVWF  79
0029:  MOVF   23,W
002A:  MOVWF  7A
002B:  MOVF   24,W
002C:  MOVLB  03
002D:  MOVWF  11
002E:  MOVLB  00
002F:  MOVF   25,W
0030:  MOVLB  03
0031:  MOVWF  12
0032:  MOVLB  00
0033:  MOVF   26,W
0034:  MOVLB  03
0035:  MOVWF  13
0036:  MOVLB  00
0037:  MOVF   27,W
0038:  MOVLB  03
0039:  MOVWF  14
003A:  RETFIE
003B:  MOVLB  00
003C:  MOVLP  00
003D:  GOTO   03E
.................... #include <ejercicio6.h>
.................... #include <16F1827.h>
.................... //////////// Standard Header file for the PIC16F1827 device ////////////////
.................... ///////////////////////////////////////////////////////////////////////////
.................... ////        (C) Copyright 1996, 2014 Custom Computer Services          ////
.................... //// This source code may only be used by licensed users of the CCS C  ////
.................... //// compiler.  This source code may only be distributed to other      ////
.................... //// licensed users of the CCS C compiler.  No other use, reproduction ////
.................... //// or distribution is permitted without written permission.          ////
.................... //// Derivative programs created using this software in object code    ////
.................... //// form are not restricted in any way.                               ////
.................... ///////////////////////////////////////////////////////////////////////////
.................... #device PIC16F1827
*
004B:  DATA D4,22
004C:  DATA 4D,28
004D:  DATA 20,26
004E:  DATA CD,1B
004F:  DATA 35,10
0050:  DATA 49,19
0051:  DATA 43,00
0052:  DATA 0D,05
0053:  DATA AD,16
0054:  DATA 2D,10
0055:  DATA CC,32
0056:  DATA 63,3A
0057:  DATA 75,39
0058:  DATA 61,10
0059:  DATA CC,26
005A:  DATA B7,1A
005B:  DATA A0,16
005C:  DATA AD,16
005D:  DATA 0D,05
005E:  DATA 00,00
005F:  DATA D4,32
0060:  DATA 6D,38
0061:  DATA 3A,10
0062:  DATA 00,01
0063:  DATA 0D,05
0064:  DATA D4,32
0065:  DATA 6D,38
0066:  DATA 65,39
0067:  DATA 61,3A
0068:  DATA 75,39
0069:  DATA 61,1D
006A:  DATA A0,12
006B:  DATA 2E,19
006C:  DATA 66,10
006D:  DATA 43,00
*
012B:  MOVF   0B,W
012C:  BCF    0B.7
012D:  MOVLB  03
012E:  BSF    15.7
012F:  BSF    15.0
0130:  NOP
0131:  NOP
0132:  BTFSC  09.7
0133:  BSF    0B.7
0134:  MOVF   13,W
0135:  ANDLW  7F
0136:  BTFSC  03.2
0137:  GOTO   173
0138:  MOVLB  00
0139:  MOVWF  31
013A:  MOVLB  03
013B:  MOVF   11,W
013C:  MOVLB  00
013D:  MOVWF  32
013E:  MOVLB  03
013F:  MOVF   12,W
0140:  MOVLB  00
0141:  MOVWF  33
0142:  MOVF   31,W
0143:  MOVWF  3A
0144:  CALL   10F
0145:  MOVF   32,W
0146:  MOVLB  03
0147:  MOVWF  11
0148:  MOVLB  00
0149:  MOVF   33,W
014A:  MOVLB  03
014B:  MOVWF  12
014C:  MOVF   0B,W
014D:  BCF    0B.7
014E:  BSF    15.7
014F:  BSF    15.0
0150:  NOP
0151:  NOP
0152:  BTFSC  09.7
0153:  BSF    0B.7
0154:  RLF    13,W
0155:  RLF    14,W
0156:  ANDLW  7F
0157:  BTFSC  03.2
0158:  GOTO   173
0159:  MOVLB  00
015A:  MOVWF  31
015B:  MOVLB  03
015C:  MOVF   11,W
015D:  MOVLB  00
015E:  MOVWF  32
015F:  MOVLB  03
0160:  MOVF   12,W
0161:  MOVLB  00
0162:  MOVWF  33
0163:  MOVF   31,W
0164:  MOVWF  3A
0165:  CALL   10F
0166:  MOVF   32,W
0167:  MOVLB  03
0168:  MOVWF  11
0169:  MOVLB  00
016A:  MOVF   33,W
016B:  MOVLB  03
016C:  MOVWF  12
016D:  INCF   11,F
016E:  BTFSC  03.2
016F:  INCF   12,F
0170:  MOVLB  00
0171:  GOTO   12B
0172:  MOVLB  03
0173:  MOVLB  00
0174:  RETURN
*
019B:  MOVF   0B,W
019C:  BCF    0B.7
019D:  MOVLB  03
019E:  BSF    15.7
019F:  BSF    15.0
01A0:  NOP
01A1:  NOP
01A2:  BTFSC  09.7
01A3:  BSF    0B.7
01A4:  MOVF   13,W
01A5:  ANDLW  7F
01A6:  BTFSC  03.2
01A7:  GOTO   1E3
01A8:  MOVLB  00
01A9:  MOVWF  31
01AA:  MOVLB  03
01AB:  MOVF   11,W
01AC:  MOVLB  00
01AD:  MOVWF  32
01AE:  MOVLB  03
01AF:  MOVF   12,W
01B0:  MOVLB  00
01B1:  MOVWF  33
01B2:  MOVF   31,W
01B3:  MOVWF  40
01B4:  CALL   175
01B5:  MOVF   32,W
01B6:  MOVLB  03
01B7:  MOVWF  11
01B8:  MOVLB  00
01B9:  MOVF   33,W
01BA:  MOVLB  03
01BB:  MOVWF  12
01BC:  MOVF   0B,W
01BD:  BCF    0B.7
01BE:  BSF    15.7
01BF:  BSF    15.0
01C0:  NOP
01C1:  NOP
01C2:  BTFSC  09.7
01C3:  BSF    0B.7
01C4:  RLF    13,W
01C5:  RLF    14,W
01C6:  ANDLW  7F
01C7:  BTFSC  03.2
01C8:  GOTO   1E3
01C9:  MOVLB  00
01CA:  MOVWF  31
01CB:  MOVLB  03
01CC:  MOVF   11,W
01CD:  MOVLB  00
01CE:  MOVWF  32
01CF:  MOVLB  03
01D0:  MOVF   12,W
01D1:  MOVLB  00
01D2:  MOVWF  33
01D3:  MOVF   31,W
01D4:  MOVWF  40
01D5:  CALL   175
01D6:  MOVF   32,W
01D7:  MOVLB  03
01D8:  MOVWF  11
01D9:  MOVLB  00
01DA:  MOVF   33,W
01DB:  MOVLB  03
01DC:  MOVWF  12
01DD:  INCF   11,F
01DE:  BTFSC  03.2
01DF:  INCF   12,F
01E0:  MOVLB  00
01E1:  GOTO   19B
01E2:  MOVLB  03
01E3:  MOVLP  00
01E4:  MOVLB  00
01E5:  GOTO   688 (RETURN)
*
01F6:  MOVLW  8E
01F7:  MOVWF  77
01F8:  MOVF   39,W
01F9:  MOVWF  78
01FA:  MOVF   38,W
01FB:  MOVWF  79
01FC:  CLRF   7A
01FD:  MOVF   78,F
01FE:  BTFSS  03.2
01FF:  GOTO   20A
0200:  MOVF   79,W
0201:  MOVWF  78
0202:  CLRF   79
0203:  MOVLW  08
0204:  SUBWF  77,F
0205:  MOVF   78,F
0206:  BTFSS  03.2
0207:  GOTO   20A
0208:  CLRF   77
0209:  GOTO   212
020A:  BCF    03.0
020B:  BTFSC  78.7
020C:  GOTO   211
020D:  RLF    79,F
020E:  RLF    78,F
020F:  DECF   77,F
0210:  GOTO   20A
0211:  BCF    78.7
0212:  RETURN
0213:  MOVLW  80
0214:  BTFSC  03.1
0215:  XORWF  3D,F
0216:  CLRF   42
0217:  CLRF   43
0218:  MOVF   39,W
0219:  MOVWF  41
021A:  MOVF   3D,W
021B:  XORWF  41,F
021C:  MOVF   38,W
021D:  BTFSC  03.2
021E:  GOTO   306
021F:  MOVWF  40
0220:  MOVWF  77
0221:  MOVF   3C,W
0222:  BTFSC  03.2
0223:  GOTO   30F
0224:  SUBWF  40,F
0225:  BTFSC  03.2
0226:  GOTO   2AA
0227:  BTFSS  03.0
0228:  GOTO   267
0229:  MOVF   3D,W
022A:  MOVWF  46
022B:  BSF    46.7
022C:  MOVF   3E,W
022D:  MOVWF  45
022E:  MOVF   3F,W
022F:  MOVWF  44
0230:  CLRF   43
0231:  BCF    03.0
0232:  RRF    46,F
0233:  RRF    45,F
0234:  RRF    44,F
0235:  RRF    43,F
0236:  DECFSZ 40,F
0237:  GOTO   230
0238:  BTFSS  41.7
0239:  GOTO   23D
023A:  BSF    42.0
023B:  GOTO   323
023C:  BCF    42.0
023D:  BCF    40.0
023E:  BSF    42.4
023F:  MOVLW  20
0240:  MOVWF  05
0241:  MOVLW  1B
0242:  MOVWF  04
0243:  GOTO   338
0244:  BCF    42.4
0245:  BTFSC  41.7
0246:  GOTO   251
0247:  BTFSS  40.0
0248:  GOTO   25C
0249:  RRF    46,F
024A:  RRF    45,F
024B:  RRF    44,F
024C:  RRF    43,F
024D:  INCF   77,F
024E:  BTFSC  03.2
024F:  GOTO   31E
0250:  GOTO   25C
0251:  BTFSC  46.7
0252:  GOTO   25F
0253:  BCF    03.0
0254:  RLF    43,F
0255:  RLF    44,F
0256:  RLF    45,F
0257:  RLF    46,F
0258:  DECF   77,F
0259:  BTFSC  03.2
025A:  GOTO   31E
025B:  GOTO   251
025C:  BSF    42.6
025D:  GOTO   2CB
025E:  BCF    42.6
025F:  MOVF   39,W
0260:  MOVWF  41
0261:  BTFSS  41.7
0262:  GOTO   265
0263:  BSF    46.7
0264:  GOTO   317
0265:  BCF    46.7
0266:  GOTO   317
0267:  MOVF   3C,W
0268:  MOVWF  40
0269:  MOVWF  77
026A:  MOVF   38,W
026B:  SUBWF  40,F
026C:  MOVF   39,W
026D:  MOVWF  46
026E:  BSF    46.7
026F:  MOVF   3A,W
0270:  MOVWF  45
0271:  MOVF   3B,W
0272:  MOVWF  44
0273:  CLRF   43
0274:  BCF    03.0
0275:  RRF    46,F
0276:  RRF    45,F
0277:  RRF    44,F
0278:  RRF    43,F
0279:  DECFSZ 40,F
027A:  GOTO   273
027B:  BTFSS  41.7
027C:  GOTO   280
027D:  BSF    42.1
027E:  GOTO   323
027F:  BCF    42.1
0280:  BCF    40.0
0281:  BSF    42.5
0282:  MOVLW  20
0283:  MOVWF  05
0284:  MOVLW  1F
0285:  MOVWF  04
0286:  GOTO   338
0287:  BCF    42.5
0288:  BTFSC  41.7
0289:  GOTO   294
028A:  BTFSS  40.0
028B:  GOTO   29F
028C:  RRF    46,F
028D:  RRF    45,F
028E:  RRF    44,F
028F:  RRF    43,F
0290:  INCF   77,F
0291:  BTFSC  03.2
0292:  GOTO   31E
0293:  GOTO   29F
0294:  BTFSC  46.7
0295:  GOTO   2A2
0296:  BCF    03.0
0297:  RLF    43,F
0298:  RLF    44,F
0299:  RLF    45,F
029A:  RLF    46,F
029B:  DECF   77,F
029C:  BTFSC  03.2
029D:  GOTO   31E
029E:  GOTO   294
029F:  BSF    42.7
02A0:  GOTO   2CB
02A1:  BCF    42.7
02A2:  MOVF   3D,W
02A3:  MOVWF  41
02A4:  BTFSS  41.7
02A5:  GOTO   2A8
02A6:  BSF    46.7
02A7:  GOTO   317
02A8:  BCF    46.7
02A9:  GOTO   317
02AA:  MOVF   3D,W
02AB:  MOVWF  46
02AC:  BSF    46.7
02AD:  MOVF   3E,W
02AE:  MOVWF  45
02AF:  MOVF   3F,W
02B0:  MOVWF  44
02B1:  BTFSS  41.7
02B2:  GOTO   2B7
02B3:  BCF    46.7
02B4:  BSF    42.2
02B5:  GOTO   323
02B6:  BCF    42.2
02B7:  CLRF   43
02B8:  BCF    40.0
02B9:  MOVLW  20
02BA:  MOVWF  05
02BB:  MOVLW  1B
02BC:  MOVWF  04
02BD:  GOTO   338
02BE:  BTFSC  41.7
02BF:  GOTO   2E1
02C0:  MOVF   39,W
02C1:  MOVWF  41
02C2:  BTFSS  40.0
02C3:  GOTO   2CB
02C4:  RRF    46,F
02C5:  RRF    45,F
02C6:  RRF    44,F
02C7:  RRF    43,F
02C8:  INCF   77,F
02C9:  BTFSC  03.2
02CA:  GOTO   31E
02CB:  BTFSS  43.7
02CC:  GOTO   2DC
02CD:  INCF   44,F
02CE:  BTFSS  03.2
02CF:  GOTO   2DC
02D0:  INCF   45,F
02D1:  BTFSS  03.2
02D2:  GOTO   2DC
02D3:  INCF   46,F
02D4:  BTFSS  03.2
02D5:  GOTO   2DC
02D6:  RRF    46,F
02D7:  RRF    45,F
02D8:  RRF    44,F
02D9:  INCF   77,F
02DA:  BTFSC  03.2
02DB:  GOTO   31E
02DC:  BTFSC  42.6
02DD:  GOTO   25E
02DE:  BTFSC  42.7
02DF:  GOTO   2A1
02E0:  GOTO   300
02E1:  MOVLW  80
02E2:  XORWF  46,F
02E3:  BTFSS  46.7
02E4:  GOTO   2E9
02E5:  GOTO   323
02E6:  MOVF   3D,W
02E7:  MOVWF  41
02E8:  GOTO   2F6
02E9:  MOVF   39,W
02EA:  MOVWF  41
02EB:  MOVF   46,F
02EC:  BTFSS  03.2
02ED:  GOTO   2F6
02EE:  MOVF   45,F
02EF:  BTFSS  03.2
02F0:  GOTO   2F6
02F1:  MOVF   44,F
02F2:  BTFSS  03.2
02F3:  GOTO   2F6
02F4:  CLRF   77
02F5:  GOTO   317
02F6:  BTFSC  46.7
02F7:  GOTO   300
02F8:  BCF    03.0
02F9:  RLF    43,F
02FA:  RLF    44,F
02FB:  RLF    45,F
02FC:  RLF    46,F
02FD:  DECFSZ 77,F
02FE:  GOTO   2F6
02FF:  GOTO   31E
0300:  BTFSS  41.7
0301:  GOTO   304
0302:  BSF    46.7
0303:  GOTO   317
0304:  BCF    46.7
0305:  GOTO   317
0306:  MOVF   3C,W
0307:  MOVWF  77
0308:  MOVF   3D,W
0309:  MOVWF  46
030A:  MOVF   3E,W
030B:  MOVWF  45
030C:  MOVF   3F,W
030D:  MOVWF  44
030E:  GOTO   317
030F:  MOVF   38,W
0310:  MOVWF  77
0311:  MOVF   39,W
0312:  MOVWF  46
0313:  MOVF   3A,W
0314:  MOVWF  45
0315:  MOVF   3B,W
0316:  MOVWF  44
0317:  MOVF   46,W
0318:  MOVWF  78
0319:  MOVF   45,W
031A:  MOVWF  79
031B:  MOVF   44,W
031C:  MOVWF  7A
031D:  GOTO   354
031E:  CLRF   77
031F:  CLRF   78
0320:  CLRF   79
0321:  CLRF   7A
0322:  GOTO   354
0323:  CLRF   43
0324:  COMF   44,F
0325:  COMF   45,F
0326:  COMF   46,F
0327:  COMF   43,F
0328:  INCF   43,F
0329:  BTFSS  03.2
032A:  GOTO   331
032B:  INCF   44,F
032C:  BTFSS  03.2
032D:  GOTO   331
032E:  INCF   45,F
032F:  BTFSC  03.2
0330:  INCF   46,F
0331:  BTFSC  42.0
0332:  GOTO   23C
0333:  BTFSC  42.1
0334:  GOTO   27F
0335:  BTFSC  42.2
0336:  GOTO   2B6
0337:  GOTO   2E6
0338:  MOVF   00,W
0339:  ADDWF  44,F
033A:  BTFSS  03.0
033B:  GOTO   342
033C:  INCF   45,F
033D:  BTFSS  03.2
033E:  GOTO   342
033F:  INCF   46,F
0340:  BTFSC  03.2
0341:  BSF    40.0
0342:  MOVIW  [--FSR0],W
0343:  ADDWF  45,F
0344:  BTFSS  03.0
0345:  GOTO   349
0346:  INCF   46,F
0347:  BTFSC  03.2
0348:  BSF    40.0
0349:  MOVIW  [--FSR0],W
034A:  BTFSS  00.7
034B:  XORLW  80
034C:  ADDWF  46,F
034D:  BTFSC  03.0
034E:  BSF    40.0
034F:  BTFSC  42.4
0350:  GOTO   244
0351:  BTFSC  42.5
0352:  GOTO   287
0353:  GOTO   2BE
0354:  RETURN
*
03A4:  MOVLW  8E
03A5:  MOVWF  77
03A6:  MOVF   38,W
03A7:  SUBWF  77,F
03A8:  MOVF   39,W
03A9:  MOVWF  79
03AA:  MOVF   3A,W
03AB:  MOVWF  78
03AC:  BSF    79.7
03AD:  MOVF   77,F
03AE:  BTFSC  03.2
03AF:  GOTO   3BB
03B0:  BCF    03.0
03B1:  MOVF   79,F
03B2:  BTFSS  03.2
03B3:  GOTO   3B7
03B4:  MOVF   78,F
03B5:  BTFSC  03.2
03B6:  GOTO   3BB
03B7:  RRF    79,F
03B8:  RRF    78,F
03B9:  DECFSZ 77,F
03BA:  GOTO   3B0
03BB:  BTFSS  39.7
03BC:  GOTO   3C2
03BD:  COMF   78,F
03BE:  COMF   79,F
03BF:  INCF   78,F
03C0:  BTFSC  03.2
03C1:  INCF   79,F
03C2:  RETURN
03C3:  MOVF   40,W
03C4:  BTFSC  03.2
03C5:  GOTO   433
03C6:  MOVWF  48
03C7:  MOVF   44,W
03C8:  BTFSC  03.2
03C9:  GOTO   433
03CA:  ADDWF  48,F
03CB:  BTFSC  03.0
03CC:  GOTO   3D4
03CD:  MOVLW  7F
03CE:  SUBWF  48,F
03CF:  BTFSS  03.0
03D0:  GOTO   433
03D1:  BTFSC  03.2
03D2:  GOTO   433
03D3:  GOTO   3D8
03D4:  MOVLW  81
03D5:  ADDWF  48,F
03D6:  BTFSC  03.0
03D7:  GOTO   433
03D8:  MOVF   48,W
03D9:  MOVWF  77
03DA:  CLRF   78
03DB:  CLRF   79
03DC:  CLRF   7A
03DD:  MOVF   41,W
03DE:  MOVWF  4C
03DF:  BSF    4C.7
03E0:  MOVF   42,W
03E1:  MOVWF  4B
03E2:  MOVF   43,W
03E3:  MOVWF  4A
03E4:  MOVLW  18
03E5:  MOVWF  48
03E6:  CLRF   49
03E7:  BTFSS  4A.0
03E8:  GOTO   401
03E9:  MOVF   47,W
03EA:  ADDWF  7A,F
03EB:  BTFSS  03.0
03EC:  GOTO   3F3
03ED:  INCF   79,F
03EE:  BTFSS  03.2
03EF:  GOTO   3F3
03F0:  INCF   78,F
03F1:  BTFSC  03.2
03F2:  BSF    49.7
03F3:  MOVF   46,W
03F4:  ADDWF  79,F
03F5:  BTFSS  03.0
03F6:  GOTO   3FA
03F7:  INCF   78,F
03F8:  BTFSC  03.2
03F9:  BSF    49.7
03FA:  MOVF   45,W
03FB:  MOVWF  42
03FC:  BSF    42.7
03FD:  MOVF   42,W
03FE:  ADDWF  78,F
03FF:  BTFSC  03.0
0400:  BSF    49.7
0401:  RLF    49,F
0402:  RRF    78,F
0403:  RRF    79,F
0404:  RRF    7A,F
0405:  RRF    4C,F
0406:  RRF    4B,F
0407:  RRF    4A,F
0408:  BCF    03.0
0409:  DECFSZ 48,F
040A:  GOTO   3E6
040B:  MOVLW  01
040C:  ADDWF  77,F
040D:  BTFSC  03.0
040E:  GOTO   433
040F:  BTFSC  78.7
0410:  GOTO   418
0411:  RLF    4C,F
0412:  RLF    7A,F
0413:  RLF    79,F
0414:  RLF    78,F
0415:  DECF   77,F
0416:  BTFSC  03.2
0417:  GOTO   433
0418:  BTFSS  4C.7
0419:  GOTO   429
041A:  INCF   7A,F
041B:  BTFSS  03.2
041C:  GOTO   429
041D:  INCF   79,F
041E:  BTFSS  03.2
041F:  GOTO   429
0420:  INCF   78,F
0421:  BTFSS  03.2
0422:  GOTO   429
0423:  RRF    78,F
0424:  RRF    79,F
0425:  RRF    7A,F
0426:  INCF   77,F
0427:  BTFSC  03.2
0428:  GOTO   433
0429:  MOVF   41,W
042A:  MOVWF  49
042B:  MOVF   45,W
042C:  XORWF  49,F
042D:  BTFSS  49.7
042E:  GOTO   431
042F:  BSF    78.7
0430:  GOTO   437
0431:  BCF    78.7
0432:  GOTO   437
0433:  CLRF   77
0434:  CLRF   78
0435:  CLRF   79
0436:  CLRF   7A
0437:  RETURN
0438:  MOVF   3B,W
0439:  CLRF   78
043A:  SUBWF  3A,W
043B:  BTFSC  03.0
043C:  GOTO   440
043D:  MOVF   3A,W
043E:  MOVWF  77
043F:  GOTO   44C
0440:  CLRF   77
0441:  MOVLW  08
0442:  MOVWF  3C
0443:  RLF    3A,F
0444:  RLF    77,F
0445:  MOVF   3B,W
0446:  SUBWF  77,W
0447:  BTFSC  03.0
0448:  MOVWF  77
0449:  RLF    78,F
044A:  DECFSZ 3C,F
044B:  GOTO   443
044C:  RETURN
044D:  MOVF   78,W
044E:  MOVF   38,W
044F:  MOVWF  3A
0450:  MOVLW  64
0451:  MOVWF  3B
0452:  CALL   438
0453:  MOVF   77,W
0454:  MOVWF  38
0455:  MOVF   78,W
0456:  MOVLW  30
0457:  BTFSS  03.2
0458:  GOTO   460
0459:  BTFSS  39.1
045A:  GOTO   467
045B:  BTFSC  39.3
045C:  GOTO   467
045D:  BTFSC  39.4
045E:  MOVLW  20
045F:  GOTO   463
0460:  BCF    39.3
0461:  BCF    39.4
0462:  BSF    39.0
0463:  ADDWF  78,F
0464:  MOVF   78,W
0465:  MOVWF  3A
0466:  CALL   10F
0467:  MOVF   38,W
0468:  MOVWF  3A
0469:  MOVLW  0A
046A:  MOVWF  3B
046B:  CALL   438
046C:  MOVF   77,W
046D:  MOVWF  38
046E:  MOVF   78,W
046F:  MOVLW  30
0470:  BTFSS  03.2
0471:  GOTO   478
0472:  BTFSC  39.3
0473:  GOTO   47C
0474:  BTFSS  39.0
0475:  GOTO   47C
0476:  BTFSC  39.4
0477:  MOVLW  20
0478:  ADDWF  78,F
0479:  MOVF   78,W
047A:  MOVWF  3A
047B:  CALL   10F
047C:  MOVLW  30
047D:  ADDWF  38,F
047E:  MOVF   38,W
047F:  MOVWF  3A
0480:  CALL   10F
0481:  RETURN
*
04D4:  MOVF   0B,W
04D5:  BCF    0B.7
04D6:  MOVLB  03
04D7:  BSF    15.7
04D8:  BSF    15.0
04D9:  NOP
04DA:  NOP
04DB:  BTFSC  09.7
04DC:  BSF    0B.7
04DD:  BTFSC  03.0
04DE:  GOTO   505
04DF:  MOVF   13,W
04E0:  ANDLW  7F
04E1:  MOVLB  00
04E2:  MOVWF  31
04E3:  MOVLB  03
04E4:  MOVF   11,W
04E5:  MOVLB  00
04E6:  MOVWF  32
04E7:  MOVLB  03
04E8:  MOVF   12,W
04E9:  MOVLB  00
04EA:  MOVWF  33
04EB:  MOVF   31,W
04EC:  MOVWF  40
04ED:  CALL   175
04EE:  MOVF   32,W
04EF:  MOVLB  03
04F0:  MOVWF  11
04F1:  MOVLB  00
04F2:  MOVF   33,W
04F3:  MOVLB  03
04F4:  MOVWF  12
04F5:  MOVF   0B,W
04F6:  BCF    0B.7
04F7:  BSF    15.7
04F8:  BSF    15.0
04F9:  NOP
04FA:  NOP
04FB:  BTFSC  09.7
04FC:  BSF    0B.7
04FD:  MOVLB  00
04FE:  DECFSZ 30,F
04FF:  GOTO   501
0500:  GOTO   503
0501:  MOVLB  03
0502:  GOTO   505
0503:  GOTO   523
0504:  MOVLB  03
0505:  RLF    13,W
0506:  RLF    14,W
0507:  ANDLW  7F
0508:  MOVLB  00
0509:  MOVWF  31
050A:  MOVLB  03
050B:  MOVF   11,W
050C:  MOVLB  00
050D:  MOVWF  32
050E:  MOVLB  03
050F:  MOVF   12,W
0510:  MOVLB  00
0511:  MOVWF  33
0512:  MOVF   31,W
0513:  MOVWF  40
0514:  CALL   175
0515:  MOVF   32,W
0516:  MOVLB  03
0517:  MOVWF  11
0518:  MOVLB  00
0519:  MOVF   33,W
051A:  MOVLB  03
051B:  MOVWF  12
051C:  INCF   11,F
051D:  BTFSC  03.2
051E:  INCF   12,F
051F:  BCF    03.0
0520:  MOVLB  00
0521:  DECFSZ 30,F
0522:  GOTO   4D4
0523:  MOVLP  00
0524:  GOTO   6BB (RETURN)
0525:  BTFSC  03.1
0526:  GOTO   52B
0527:  MOVLW  20
0528:  MOVWF  05
0529:  MOVLW  28
052A:  MOVWF  04
052B:  CLRF   77
052C:  CLRF   78
052D:  CLRF   79
052E:  CLRF   7A
052F:  CLRF   48
0530:  CLRF   49
0531:  CLRF   4A
0532:  CLRF   4B
0533:  MOVF   47,W
0534:  IORWF  46,W
0535:  IORWF  45,W
0536:  IORWF  44,W
0537:  BTFSC  03.2
0538:  GOTO   569
0539:  MOVLW  20
053A:  MOVWF  4C
053B:  BCF    03.0
053C:  RLF    40,F
053D:  RLF    41,F
053E:  RLF    42,F
053F:  RLF    43,F
0540:  RLF    48,F
0541:  RLF    49,F
0542:  RLF    4A,F
0543:  RLF    4B,F
0544:  MOVF   47,W
0545:  SUBWF  4B,W
0546:  BTFSS  03.2
0547:  GOTO   552
0548:  MOVF   46,W
0549:  SUBWF  4A,W
054A:  BTFSS  03.2
054B:  GOTO   552
054C:  MOVF   45,W
054D:  SUBWF  49,W
054E:  BTFSS  03.2
054F:  GOTO   552
0550:  MOVF   44,W
0551:  SUBWF  48,W
0552:  BTFSS  03.0
0553:  GOTO   563
0554:  MOVF   44,W
0555:  SUBWF  48,F
0556:  MOVF   45,W
0557:  BTFSS  03.0
0558:  INCFSZ 45,W
0559:  SUBWF  49,F
055A:  MOVF   46,W
055B:  BTFSS  03.0
055C:  INCFSZ 46,W
055D:  SUBWF  4A,F
055E:  MOVF   47,W
055F:  BTFSS  03.0
0560:  INCFSZ 47,W
0561:  SUBWF  4B,F
0562:  BSF    03.0
0563:  RLF    77,F
0564:  RLF    78,F
0565:  RLF    79,F
0566:  RLF    7A,F
0567:  DECFSZ 4C,F
0568:  GOTO   53B
0569:  MOVF   48,W
056A:  MOVWF  00
056B:  MOVF   49,W
056C:  MOVWI  W,[FSR0+01]
056D:  MOVF   4A,W
056E:  MOVWI  W,[FSR0+02]
056F:  MOVF   4B,W
0570:  MOVWI  W,[FSR0+03]
0571:  RETURN
0572:  MOVF   04,W
0573:  MOVWF  38
0574:  MOVF   34,W
0575:  MOVWF  3A
0576:  BTFSC  03.2
0577:  GOTO   591
0578:  MOVF   33,W
0579:  MOVWF  43
057A:  MOVF   32,W
057B:  MOVWF  42
057C:  MOVF   31,W
057D:  MOVWF  41
057E:  MOVF   30,W
057F:  MOVWF  40
0580:  CLRF   47
0581:  CLRF   46
0582:  MOVLW  20
0583:  MOVWF  45
0584:  MOVLW  82
0585:  MOVWF  44
0586:  CALL   3C3
0587:  MOVF   7A,W
0588:  MOVWF  33
0589:  MOVF   79,W
058A:  MOVWF  32
058B:  MOVF   78,W
058C:  MOVWF  31
058D:  MOVF   77,W
058E:  MOVWF  30
058F:  DECFSZ 3A,F
0590:  GOTO   578
0591:  MOVF   33,W
0592:  MOVWF  43
0593:  MOVF   32,W
0594:  MOVWF  42
0595:  MOVF   31,W
0596:  MOVWF  41
0597:  MOVF   30,W
0598:  MOVWF  40
0599:  MOVF   40,W
059A:  SUBLW  B6
059B:  MOVWF  40
059C:  CLRF   7A
059D:  MOVF   41,W
059E:  MOVWF  44
059F:  BSF    41.7
05A0:  BCF    03.0
05A1:  RRF    41,F
05A2:  RRF    42,F
05A3:  RRF    43,F
05A4:  RRF    7A,F
05A5:  RRF    79,F
05A6:  RRF    78,F
05A7:  RRF    77,F
05A8:  DECFSZ 40,F
05A9:  GOTO   5A0
05AA:  BTFSS  44.7
05AB:  GOTO   5B7
05AC:  COMF   77,F
05AD:  COMF   78,F
05AE:  COMF   79,F
05AF:  COMF   7A,F
05B0:  INCF   77,F
05B1:  BTFSC  03.2
05B2:  INCF   78,F
05B3:  BTFSC  03.2
05B4:  INCF   79,F
05B5:  BTFSC  03.2
05B6:  INCF   7A,F
05B7:  MOVF   7A,W
05B8:  MOVWF  33
05B9:  MOVF   79,W
05BA:  MOVWF  32
05BB:  MOVF   78,W
05BC:  MOVWF  31
05BD:  MOVF   77,W
05BE:  MOVWF  30
05BF:  BTFSS  33.7
05C0:  GOTO   5CE
05C1:  DECF   38,F
05C2:  BSF    38.5
05C3:  COMF   30,F
05C4:  COMF   31,F
05C5:  COMF   32,F
05C6:  COMF   33,F
05C7:  INCF   30,F
05C8:  BTFSC  03.2
05C9:  INCF   31,F
05CA:  BTFSC  03.2
05CB:  INCF   32,F
05CC:  BTFSC  03.2
05CD:  INCF   33,F
05CE:  MOVLW  3B
05CF:  MOVWF  3F
05D0:  MOVLW  9A
05D1:  MOVWF  3E
05D2:  MOVLW  CA
05D3:  MOVWF  3D
05D4:  CLRF   3C
05D5:  MOVLW  0A
05D6:  MOVWF  3A
05D7:  MOVF   34,W
05D8:  BTFSC  03.2
05D9:  INCF   38,F
05DA:  BSF    03.1
05DB:  MOVLW  20
05DC:  MOVWF  05
05DD:  MOVLW  10
05DE:  MOVWF  04
05DF:  MOVF   33,W
05E0:  MOVWF  43
05E1:  MOVF   32,W
05E2:  MOVWF  42
05E3:  MOVF   31,W
05E4:  MOVWF  41
05E5:  MOVF   30,W
05E6:  MOVWF  40
05E7:  MOVF   3F,W
05E8:  MOVWF  47
05E9:  MOVF   3E,W
05EA:  MOVWF  46
05EB:  MOVF   3D,W
05EC:  MOVWF  45
05ED:  MOVF   3C,W
05EE:  MOVWF  44
05EF:  CALL   525
05F0:  MOVF   78,W
05F1:  MOVF   77,F
05F2:  BTFSS  03.2
05F3:  GOTO   607
05F4:  INCF   34,W
05F5:  SUBWF  3A,W
05F6:  BTFSC  03.2
05F7:  GOTO   607
05F8:  MOVF   38,W
05F9:  BTFSC  03.2
05FA:  GOTO   609
05FB:  ANDLW  0F
05FC:  SUBWF  3A,W
05FD:  BTFSC  03.2
05FE:  GOTO   601
05FF:  BTFSC  03.0
0600:  GOTO   639
0601:  BTFSC  38.7
0602:  GOTO   639
0603:  BTFSC  38.6
0604:  GOTO   609
0605:  MOVLW  20
0606:  GOTO   635
0607:  MOVLW  20
0608:  ANDWF  38,F
0609:  BTFSS  38.5
060A:  GOTO   617
060B:  BCF    38.5
060C:  MOVF   34,W
060D:  BTFSS  03.2
060E:  DECF   38,F
060F:  MOVF   77,W
0610:  MOVWF  38
0611:  MOVLW  2D
0612:  MOVWF  40
0613:  CALL   175
0614:  MOVF   38,W
0615:  MOVWF  77
0616:  CLRF   38
0617:  MOVF   34,W
0618:  SUBWF  3A,W
0619:  BTFSS  03.2
061A:  GOTO   625
061B:  MOVF   77,W
061C:  MOVWF  38
061D:  MOVLW  2E
061E:  MOVWF  40
061F:  CALL   175
0620:  MOVF   38,W
0621:  MOVWF  77
0622:  MOVLW  20
0623:  ANDWF  38,F
0624:  MOVLW  00
0625:  MOVLW  30
0626:  BTFSS  38.5
0627:  GOTO   635
0628:  BCF    38.5
0629:  MOVF   34,W
062A:  BTFSS  03.2
062B:  DECF   38,F
062C:  MOVF   77,W
062D:  MOVWF  38
062E:  MOVLW  2D
062F:  MOVWF  40
0630:  CALL   175
0631:  MOVF   38,W
0632:  MOVWF  77
0633:  CLRF   38
0634:  MOVLW  30
0635:  ADDWF  77,F
0636:  MOVF   77,W
0637:  MOVWF  40
0638:  CALL   175
0639:  BCF    03.1
063A:  MOVF   3F,W
063B:  MOVWF  43
063C:  MOVF   3E,W
063D:  MOVWF  42
063E:  MOVF   3D,W
063F:  MOVWF  41
0640:  MOVF   3C,W
0641:  MOVWF  40
0642:  CLRF   47
0643:  CLRF   46
0644:  CLRF   45
0645:  MOVLW  0A
0646:  MOVWF  44
0647:  CALL   525
0648:  MOVF   7A,W
0649:  MOVWF  3F
064A:  MOVF   79,W
064B:  MOVWF  3E
064C:  MOVF   78,W
064D:  MOVWF  3D
064E:  MOVF   77,W
064F:  MOVWF  3C
0650:  DECFSZ 3A,F
0651:  GOTO   5DA
0652:  MOVLP  00
0653:  GOTO   6C8 (RETURN)
.................... 
.................... #list
.................... 
.................... #device ADC=10
.................... #use delay(internal=4MHz)
*
006E:  MOVLW  20
006F:  MOVWF  05
0070:  MOVLW  11
0071:  MOVWF  04
0072:  MOVF   00,W
0073:  BTFSC  03.2
0074:  GOTO   083
0075:  MOVLW  01
0076:  MOVWF  78
0077:  CLRF   77
0078:  DECFSZ 77,F
0079:  GOTO   078
007A:  DECFSZ 78,F
007B:  GOTO   077
007C:  MOVLW  4A
007D:  MOVWF  77
007E:  DECFSZ 77,F
007F:  GOTO   07E
0080:  GOTO   081
0081:  DECFSZ 00,F
0082:  GOTO   075
0083:  RETURN
.................... 
.................... 
.................... 
.................... #fuses INTRC_IO, NOWDT, NOMCLR
.................... 
.................... 
.................... // CONFIGURACIÓN I2C 
.................... #use i2c(MASTER, SDA=PIN_B1, SCL=PIN_B4, FAST=100000)
0084:  MOVLB  04
0085:  BCF    15.7
0086:  MOVLB  00
0087:  BCF    11.3
0088:  MOVF   40,W
0089:  MOVLB  04
008A:  MOVWF  11
008B:  MOVLW  02
008C:  BTFSC  15.7
008D:  GOTO   095
008E:  MOVLB  00
008F:  BTFSS  11.3
0090:  GOTO   08F
0091:  MOVLW  00
0092:  MOVLB  04
0093:  BTFSC  16.6
0094:  MOVLW  01
0095:  MOVWF  78
0096:  MOVLB  00
0097:  RETURN
*
01E6:  MOVLB  04
01E7:  BCF    15.6
01E8:  BSF    16.3
01E9:  BTFSC  16.3
01EA:  GOTO   1E9
01EB:  BTFSC  77.0
01EC:  BCF    16.5
01ED:  BTFSS  77.0
01EE:  BSF    16.5
01EF:  BSF    16.4
01F0:  BTFSC  16.4
01F1:  GOTO   1F0
01F2:  MOVF   11,W
01F3:  MOVWF  78
01F4:  MOVLB  00
01F5:  RETURN
.................... 
.................... // dirección del LM75 (A0–A2 a GND)
.................... #define LM75_ADDR 0x90// 10010000--> 0=w y 1=r
.................... 
.................... // CONFIGURACIÓN UART
.................... #use rs232(baud=9600, xmit=PIN_A0, rcv=PIN_A1, bits=8, parity=N, stop=1)
*
0175:  MOVLB  01
0176:  BCF    0C.0
0177:  MOVLB  02
0178:  BCF    0C.0
0179:  MOVLW  08
017A:  MOVWF  78
017B:  GOTO   17C
017C:  NOP
017D:  BSF    78.7
017E:  GOTO   18F
017F:  BCF    78.7
0180:  MOVLB  00
0181:  RRF    40,F
0182:  MOVLB  02
0183:  BTFSC  03.0
0184:  BSF    0C.0
0185:  BTFSS  03.0
0186:  BCF    0C.0
0187:  BSF    78.6
0188:  GOTO   18F
0189:  BCF    78.6
018A:  DECFSZ 78,F
018B:  GOTO   180
018C:  GOTO   18D
018D:  NOP
018E:  BSF    0C.0
018F:  MOVLW  1B
0190:  MOVWF  04
0191:  DECFSZ 04,F
0192:  GOTO   191
0193:  GOTO   194
0194:  NOP
0195:  BTFSC  78.7
0196:  GOTO   17F
0197:  BTFSC  78.6
0198:  GOTO   189
0199:  MOVLB  00
019A:  RETURN
.................... 
.................... //LCD 
.................... #define I2C_LCD_DIR 0x40 //defino las compuertas del LCD
.................... #define LCD_RS  0x01
.................... #define LCD_RW  0x02
.................... #define LCD_EN  0x04
.................... 
.................... #include <lcd.c>
.................... ///////////////////////////////////////////////////////////////////////////////
.................... ////                             LCD.C                                     ////
.................... ////                 Driver for common LCD modules                         ////
.................... ////                                                                       ////
.................... ////  lcd_init()   Must be called before any other function.               ////
.................... ////                                                                       ////
.................... ////  lcd_putc(c)  Will display c on the next position of the LCD.         ////
.................... ////                 \a  Set cursor position to upper left                 ////
.................... ////                 \f  Clear display, set cursor to upper left           ////
.................... ////                 \n  Go to start of second line                        ////
.................... ////                 \b  Move back one position                            ////
.................... ////              If LCD_EXTENDED_NEWLINE is defined, the \n character     ////
.................... ////              will erase all remanining characters on the current      ////
.................... ////              line, and move the cursor to the beginning of the next   ////
.................... ////              line.                                                    ////
.................... ////              If LCD_EXTENDED_NEWLINE is defined, the \r character     ////
.................... ////              will move the cursor to the start of the current         ////
.................... ////              line.                                                    ////
.................... ////                                                                       ////
.................... ////  lcd_gotoxy(x,y) Set write position on LCD (upper left is 1,1)        ////
.................... ////                                                                       ////
.................... ////  lcd_getc(x,y)   Returns character at position x,y on LCD             ////
.................... ////                                                                       ////
.................... ////  lcd_cursor_on(int1 on)   Turn the cursor on (on=TRUE) or off         ////
.................... ////              (on=FALSE).                                              ////
.................... ////                                                                       ////
.................... ////  lcd_set_cgram_char(w, *p)   Write a custom character to the CGRAM.   ////
.................... ////                                                                       ////
.................... ////                                                                       ////
.................... ////  CONFIGURATION                                                        ////
.................... ////  The LCD can be configured in one of two ways: a.) port access or     ////
.................... ////  b.) pin access.  Port access requires the entire 7 bit interface     ////
.................... ////  connected to one GPIO port, and the data bits (D4:D7 of the LCD)     ////
.................... ////  connected to sequential pins on the GPIO.  Pin access                ////
.................... ////  has no requirements, all 7 bits of the control interface can         ////
.................... ////  can be connected to any GPIO using several ports.                    ////
.................... ////                                                                       ////
.................... ////  To use port access, #define LCD_DATA_PORT to the SFR location of     ////
.................... ////  of the GPIO port that holds the interface, -AND- edit LCD_PIN_MAP    ////
.................... ////  of this file to configure the pin order.  If you are using a         ////
.................... ////  baseline PIC (PCB), then LCD_OUTPUT_MAP and LCD_INPUT_MAP also must  ////
.................... ////  be defined.                                                          ////
.................... ////                                                                       ////
.................... ////  Example of port access:                                              ////
.................... ////     #define LCD_DATA_PORT getenv("SFR:PORTD")                         ////
.................... ////                                                                       ////
.................... ////  To use pin access, the following pins must be defined:               ////
.................... ////     LCD_ENABLE_PIN                                                    ////
.................... ////     LCD_RS_PIN                                                        ////
.................... ////     LCD_RW_PIN                                                        ////
.................... ////     LCD_DATA4                                                         ////
.................... ////     LCD_DATA5                                                         ////
.................... ////     LCD_DATA6                                                         ////
.................... ////     LCD_DATA7                                                         ////
.................... ////                                                                       ////
.................... ////  Example of pin access:                                               ////
.................... ////     #define LCD_ENABLE_PIN  PIN_E0                                    ////
.................... ////     #define LCD_RS_PIN      PIN_E1                                    ////
.................... ////     #define LCD_RW_PIN      PIN_E2                                    ////
.................... ////     #define LCD_DATA4       PIN_D4                                    ////
.................... ////     #define LCD_DATA5       PIN_D5                                    ////
.................... ////     #define LCD_DATA6       PIN_D6                                    ////
.................... ////     #define LCD_DATA7       PIN_D7                                    ////
.................... ////                                                                       ////
.................... ///////////////////////////////////////////////////////////////////////////////
.................... ////        (C) Copyright 1996,2010 Custom Computer Services           ////
.................... //// This source code may only be used by licensed users of the CCS C  ////
.................... //// compiler.  This source code may only be distributed to other      ////
.................... //// licensed users of the CCS C compiler.  No other use, reproduction ////
.................... //// or distribution is permitted without written permission.          ////
.................... //// Derivative programs created using this software in object code    ////
.................... //// form are not restricted in any way.                               ////
.................... ///////////////////////////////////////////////////////////////////////////
.................... 
.................... #ifndef __LCD_C__
.................... #define __LCD_C__
.................... 
.................... // define the pinout.
.................... // only required if port access is being used.
.................... typedef struct  
.................... {                            // This structure is overlayed
....................    int1 enable;           // on to an I/O port to gain
....................    int1 rs;               // access to the LCD pins.
....................    int1 rw;               // The bits are allocated from
....................    int1 unused;           // low order up.  ENABLE will
....................    unsigned int     data : 4;         // be LSB pin of that port.
....................   #if defined(__PCD__)       // The port used will be LCD_DATA_PORT.
....................    unsigned int    reserved: 8;
....................   #endif
.................... } LCD_PIN_MAP;
.................... 
.................... // this is to improve compatability with previous LCD drivers that accepted
.................... // a define labeled 'use_portb_lcd' that configured the LCD onto port B.
.................... #if ((defined(use_portb_lcd)) && (use_portb_lcd==TRUE))
....................  #define LCD_DATA_PORT getenv("SFR:PORTB")
.................... #endif
.................... 
.................... #if defined(__PCB__)
....................    // these definitions only need to be modified for baseline PICs.
....................    // all other PICs use LCD_PIN_MAP or individual LCD_xxx pin definitions.
.................... /*                                    EN, RS,   RW,   UNUSED,  DATA  */
....................  const LCD_PIN_MAP LCD_OUTPUT_MAP =  {0,  0,    0,    0,       0};
....................  const LCD_PIN_MAP LCD_INPUT_MAP =   {0,  0,    0,    0,       0xF};
.................... #endif
.................... 
.................... ////////////////////// END CONFIGURATION ///////////////////////////////////
.................... 
.................... #ifndef LCD_ENABLE_PIN
....................    #define lcd_output_enable(x) lcdlat.enable=x
....................    #define lcd_enable_tris()   lcdtris.enable=0
.................... #else
....................    #define lcd_output_enable(x) output_bit(LCD_ENABLE_PIN, x)
....................    #define lcd_enable_tris()  output_drive(LCD_ENABLE_PIN)
.................... #endif
.................... 
.................... #ifndef LCD_RS_PIN
....................    #define lcd_output_rs(x) lcdlat.rs=x
....................    #define lcd_rs_tris()   lcdtris.rs=0
.................... #else
....................    #define lcd_output_rs(x) output_bit(LCD_RS_PIN, x)
....................    #define lcd_rs_tris()  output_drive(LCD_RS_PIN)
.................... #endif
.................... 
.................... #ifndef LCD_RW_PIN
....................    #define lcd_output_rw(x) lcdlat.rw=x
....................    #define lcd_rw_tris()   lcdtris.rw=0
.................... #else
....................    #define lcd_output_rw(x) output_bit(LCD_RW_PIN, x)
....................    #define lcd_rw_tris()  output_drive(LCD_RW_PIN)
.................... #endif
.................... 
.................... // original version of this library incorrectly labeled LCD_DATA0 as LCD_DATA4,
.................... // LCD_DATA1 as LCD_DATA5, and so on.  this block of code makes the driver
.................... // compatible with any code written for the original library
.................... #if (defined(LCD_DATA0) && defined(LCD_DATA1) && defined(LCD_DATA2) && defined(LCD_DATA3) && !defined(LCD_DATA4) && !defined(LCD_DATA5) && !defined(LCD_DATA6) && !defined(LCD_DATA7))
....................    #define  LCD_DATA4    LCD_DATA0
....................    #define  LCD_DATA5    LCD_DATA1
....................    #define  LCD_DATA6    LCD_DATA2
....................    #define  LCD_DATA7    LCD_DATA3
.................... #endif
.................... 
.................... #ifndef LCD_DATA4
.................... #ifndef LCD_DATA_PORT
....................    #if defined(__PCB__)
....................       #define LCD_DATA_PORT      0x06     //portb
....................       #define set_tris_lcd(x)   set_tris_b(x)
....................    #else
....................      #if defined(PIN_D0)
....................       #define LCD_DATA_PORT      getenv("SFR:PORTD")     //portd
....................      #else
....................       #define LCD_DATA_PORT      getenv("SFR:PORTB")     //portb
....................      #endif
....................    #endif   
.................... #endif
.................... 
.................... #if defined(__PCB__)
....................    LCD_PIN_MAP lcd, lcdlat;
....................    #byte lcd = LCD_DATA_PORT
....................    #byte lcdlat = LCD_DATA_PORT
.................... #elif defined(__PCM__)
....................    LCD_PIN_MAP lcd, lcdlat, lcdtris;
....................    #byte lcd = LCD_DATA_PORT
....................    #byte lcdlat = LCD_DATA_PORT
....................    #byte lcdtris = LCD_DATA_PORT+0x80
.................... #elif defined(__PCH__)
....................    LCD_PIN_MAP lcd, lcdlat, lcdtris;
....................    #byte lcd = LCD_DATA_PORT
....................    #byte lcdlat = LCD_DATA_PORT+9
....................    #byte lcdtris = LCD_DATA_PORT+0x12
.................... #elif defined(__PCD__)
....................    LCD_PIN_MAP lcd, lcdlat, lcdtris;
....................    #word lcd = LCD_DATA_PORT
....................    #word lcdlat = LCD_DATA_PORT+2
....................    #word lcdtris = LCD_DATA_PORT-0x02
.................... #endif
.................... #endif   //LCD_DATA4 not defined
.................... 
.................... #ifndef LCD_TYPE
....................    #define LCD_TYPE 2           // 0=5x7, 1=5x10, 2=2 lines
.................... #endif
.................... 
.................... #ifndef LCD_LINE_TWO
....................    #define LCD_LINE_TWO 0x40    // LCD RAM address for the second line
.................... #endif
.................... 
.................... #ifndef LCD_LINE_LENGTH
....................    #define LCD_LINE_LENGTH 20
.................... #endif
.................... 
.................... unsigned int8 lcd_read_nibble(void);
.................... 
.................... unsigned int8 lcd_read_byte(void)
.................... {
....................    unsigned int8 low,high;
.................... 
....................  #if defined(__PCB__)
....................    set_tris_lcd(LCD_INPUT_MAP);
....................  #else
....................   #if (defined(LCD_DATA4) && defined(LCD_DATA5) && defined(LCD_DATA6) && defined(LCD_DATA7))
....................    output_float(LCD_DATA4);
....................    output_float(LCD_DATA5);
....................    output_float(LCD_DATA6);
....................    output_float(LCD_DATA7);
....................   #else
....................    lcdtris.data = 0xF;
....................   #endif
....................  #endif
....................         
....................    lcd_output_rw(1);
....................    delay_cycles(1);
....................    lcd_output_enable(1);
....................    delay_cycles(1);
....................    high = lcd_read_nibble();
....................       
....................    lcd_output_enable(0);
....................    delay_cycles(1);
....................    lcd_output_enable(1);
....................    delay_us(1);
....................    low = lcd_read_nibble();
....................       
....................    lcd_output_enable(0);
.................... 
....................  #if defined(__PCB__)
....................    set_tris_lcd(LCD_OUTPUT_MAP);
....................  #else
....................   #if (defined(LCD_DATA4) && defined(LCD_DATA5) && defined(LCD_DATA6) && defined(LCD_DATA7))
....................    output_drive(LCD_DATA4);
....................    output_drive(LCD_DATA5);
....................    output_drive(LCD_DATA6);
....................    output_drive(LCD_DATA7);
....................   #else
....................    lcdtris.data = 0x0;
....................   #endif
....................  #endif
.................... 
....................    return( (high<<4) | low);
.................... }
.................... 
.................... unsigned int8 lcd_read_nibble(void)
.................... {
....................   #if (defined(LCD_DATA4) && defined(LCD_DATA5) && defined(LCD_DATA6) && defined(LCD_DATA7))
....................    unsigned int8 n = 0x00;
.................... 
....................    /* Read the data port */
....................    n |= input(LCD_DATA4);
....................    n |= input(LCD_DATA5) << 1;
....................    n |= input(LCD_DATA6) << 2;
....................    n |= input(LCD_DATA7) << 3;
....................    
....................    return(n);
....................   #else
....................    return(lcd.data);
....................   #endif
.................... }
.................... 
.................... void lcd_send_nibble(unsigned int8 n)
.................... {
....................   #if (defined(LCD_DATA4) && defined(LCD_DATA5) && defined(LCD_DATA6) && defined(LCD_DATA7))
....................    /* Write to the data port */
....................    output_bit(LCD_DATA4, bit_test(n, 0));
....................    output_bit(LCD_DATA5, bit_test(n, 1));
....................    output_bit(LCD_DATA6, bit_test(n, 2));
....................    output_bit(LCD_DATA7, bit_test(n, 3));
....................   #else      
....................    lcdlat.data = n;
....................   #endif
....................       
....................    delay_cycles(1);
....................    lcd_output_enable(1);
....................    delay_us(2);
....................    lcd_output_enable(0);
.................... }
.................... 
.................... void lcd_send_byte(unsigned int8 address, unsigned int8 n)
.................... {
....................   #if defined(__PCB__)
....................    set_tris_lcd(LCD_OUTPUT_MAP);
....................   #else
....................    lcd_enable_tris();
....................    lcd_rs_tris();
....................    lcd_rw_tris();
....................   #endif
.................... 
....................    lcd_output_rs(0);
....................    while ( bit_test(lcd_read_byte(),7) ) ;
....................    lcd_output_rs(address);
....................    delay_cycles(1);
....................    lcd_output_rw(0);
....................    delay_cycles(1);
....................    lcd_output_enable(0);
....................    lcd_send_nibble(n >> 4);
....................    lcd_send_nibble(n & 0xf);
.................... }
.................... 
.................... #if defined(LCD_EXTENDED_NEWLINE)
.................... unsigned int8 g_LcdX, g_LcdY;
.................... #endif
.................... 
.................... void lcd_init(void) 
.................... {
....................    unsigned int8 i;
....................    unsigned int8 LCD_INIT_STRING[4] = {0x20 | (LCD_TYPE << 2), 0xc, 1, 6};
....................                              // These bytes need to be sent to the LCD
....................                              // to start it up.
....................    
.................... 
....................    lcd_output_enable(0);
....................    lcd_output_rs(0);
....................    lcd_output_rw(0);
.................... 
....................  #if defined(__PCB__)
....................    set_tris_lcd(LCD_OUTPUT_MAP);
....................  #else
....................   #if (defined(LCD_DATA4) && defined(LCD_DATA5) && defined(LCD_DATA6) && defined(LCD_DATA7))
....................    output_drive(LCD_DATA4);
....................    output_drive(LCD_DATA5);
....................    output_drive(LCD_DATA6);
....................    output_drive(LCD_DATA7);
....................   #else
....................    lcdtris.data = 0x0;
....................   #endif
....................    lcd_enable_tris();
....................    lcd_rs_tris();
....................    lcd_rw_tris();
....................  #endif
....................     
....................    delay_ms(15);
....................    for(i=1;i<=3;++i)
....................    {
....................        lcd_send_nibble(3);
....................        delay_ms(5);
....................    }
....................    
....................    lcd_send_nibble(2);
....................    delay_ms(5);
....................    for(i=0;i<=3;++i)
....................       lcd_send_byte(0,LCD_INIT_STRING[i]);
.................... 
....................   #if defined(LCD_EXTENDED_NEWLINE)
....................    g_LcdX = 0;
....................    g_LcdY = 0;
....................   #endif
.................... }
.................... 
.................... void lcd_gotoxy(unsigned int8 x, unsigned int8 y)
.................... {
....................    unsigned int8 address;
....................    
....................    if(y!=1)
....................       address=LCD_LINE_TWO;
....................    else
....................       address=0;
....................      
....................    address+=x-1;
....................    lcd_send_byte(0,0x80|address);
.................... 
....................   #if defined(LCD_EXTENDED_NEWLINE)
....................    g_LcdX = x - 1;
....................    g_LcdY = y - 1;
....................   #endif
.................... }
.................... 
.................... void lcd_putc(char c)
.................... {
....................    switch (c)
....................    {
....................       case '\a'   :  lcd_gotoxy(1,1);     break;
.................... 
....................       case '\f'   :  lcd_send_byte(0,1);
....................                      delay_ms(2);
....................                     #if defined(LCD_EXTENDED_NEWLINE)
....................                      g_LcdX = 0;
....................                      g_LcdY = 0;
....................                     #endif
....................                      break;
.................... 
....................      #if defined(LCD_EXTENDED_NEWLINE)
....................       case '\r'   :  lcd_gotoxy(1, g_LcdY+1);   break;
....................       case '\n'   :
....................          while (g_LcdX++ < LCD_LINE_LENGTH)
....................          {
....................             lcd_send_byte(1, ' ');
....................          }
....................          lcd_gotoxy(1, g_LcdY+2);
....................          break;
....................      #else
....................       case '\n'   : lcd_gotoxy(1,2);        break;
....................      #endif
....................      
....................       case '\b'   : lcd_send_byte(0,0x10);  break;
....................      
....................      #if defined(LCD_EXTENDED_NEWLINE)
....................       default     : 
....................          if (g_LcdX < LCD_LINE_LENGTH)
....................          {
....................             lcd_send_byte(1, c);
....................             g_LcdX++;
....................          }
....................          break;
....................      #else
....................       default     : lcd_send_byte(1,c);     break;
....................      #endif
....................    }
.................... }
....................  
.................... char lcd_getc(unsigned int8 x, unsigned int8 y)
.................... {
....................    char value;
.................... 
....................    lcd_gotoxy(x,y);
....................    while ( bit_test(lcd_read_byte(),7) ); // wait until busy flag is low
....................    lcd_output_rs(1);
....................    value = lcd_read_byte();
....................    lcd_output_rs(0);
....................    
....................    return(value);
.................... }
.................... 
.................... // write a custom character to the ram
.................... // which is 0-7 and specifies which character array we are modifying.
.................... // ptr points to an array of 8 bytes, where each byte is the next row of
.................... //    pixels.  only bits 0-4 are used.  the last row is the cursor row, and
.................... //    usually you will want to leave this byte 0x00.
.................... void lcd_set_cgram_char(unsigned int8 which, unsigned int8 *ptr)
.................... {
....................    unsigned int i;
.................... 
....................    which <<= 3;
....................    which &= 0x38;
.................... 
....................    lcd_send_byte(0, 0x40 | which);  //set cgram address
.................... 
....................    for(i=0; i<8; i++)
....................    {
....................       lcd_send_byte(1, *ptr++);
....................    }
....................   
....................    #if defined(LCD_EXTENDED_NEWLINE)
....................     lcd_gotoxy(g_LcdX+1, g_LcdY+1);  //set ddram address
....................    #endif
.................... }
.................... 
.................... void lcd_cursor_on(int1 on)
.................... {
....................    if (on)
....................    {
....................       lcd_send_byte(0,0x0F);           //turn LCD cursor ON
....................    }
....................    else
....................    {
....................       lcd_send_byte(0,0x0C);           //turn LCD cursor OFF
....................    }
.................... }
.................... 
.................... #endif
.................... 
.................... 
.................... // FUNCIONES
.................... 
.................... void lcd_enviar_4bits(int8 nibble, int1 es_texto);
.................... void lcd_comando(int8 comando);
.................... void lcd_texto(char letra);
.................... void lcd_iniciar(void);
.................... void lcd_mostrar_float(float num);
.................... float leer_temperatura_LM75(void);
.................... void InitTimer0(void); 
.................... void maquina(void);
.................... 
.................... // VARIABLES
....................    /*Timer0*/
.................... int contador_ms=0; 
.................... int flag_segundo=0; //para el timer
.................... 
.................... 
.................... 
.................... //INTERRUPCIONES
.................... //TIMER 0 
.................... #INT_TIMER0 // ACA ESCRIBO QUÉ DEBO HACER EN CADA INTERRUPCIÓN
.................... void Timer0_ISR() {
....................   set_timer0(61);//seteo
*
003E:  MOVLW  3D
003F:  MOVWF  15
....................   contador_ms++; //incremento
0040:  INCF   28,F
....................   
....................   if(contador_ms >= 20) { //PASO 1 SEG
0041:  MOVF   28,W
0042:  SUBLW  13
0043:  BTFSC  03.0
0044:  GOTO   048
....................        contador_ms = 0;
0045:  CLRF   28
....................        flag_segundo = 1; // aviso que ya pasó el tiempo deseado
0046:  MOVLW  01
0047:  MOVWF  29
....................    }
0048:  BCF    0B.2
0049:  MOVLP  00
004A:  GOTO   023
.................... }
.................... 
.................... 
.................... void main() {
*
0654:  MOVLW  6A
0655:  MOVLB  01
0656:  MOVWF  19
0657:  BSF    0D.4
0658:  BSF    0D.1
0659:  MOVLB  04
065A:  BCF    17.0
065B:  BCF    17.1
065C:  BCF    17.3
065D:  MOVLW  09
065E:  MOVWF  12
065F:  MOVLW  28
0660:  MOVWF  15
0661:  BSF    14.7
0662:  BCF    14.6
0663:  MOVLB  01
0664:  BCF    0C.0
0665:  MOVLB  02
0666:  BSF    0C.0
0667:  MOVLB  00
0668:  CLRF   28
0669:  CLRF   29
066A:  CLRF   2B
066B:  CLRF   2A
066C:  MOVLB  03
066D:  CLRF   0C
066E:  CLRF   0D
066F:  MOVLB  02
0670:  CLRF   12
0671:  CLRF   11
0672:  CLRF   14
0673:  CLRF   13
....................    //inicializo
....................    lcd_iniciar();// inicializo LCD
0674:  MOVLB  00
0675:  GOTO   0CF
....................    InitTimer0(); // inicializo Timer0
0676:  GOTO   102
....................    
....................    
....................    //imprimo la intro
....................    lcd_comando(0x80); // cursor al inicio
0677:  MOVLW  80
0678:  MOVWF  30
0679:  CALL   0B2
....................    printf(lcd_texto, "TEMP LM75 I2C");// mensaje inicial
067A:  MOVLW  4B
067B:  MOVLB  03
067C:  MOVWF  11
067D:  MOVLW  00
067E:  MOVWF  12
067F:  MOVLB  00
0680:  CALL   12B
....................    printf("\r\n--- Lectura LM75 ---\r\n");
0681:  MOVLW  52
0682:  MOVLB  03
0683:  MOVWF  11
0684:  MOVLW  00
0685:  MOVWF  12
0686:  MOVLB  00
0687:  GOTO   19B
....................    
....................    float temperatura=0; //creo una variable y la inicializo
0688:  CLRF   2F
0689:  CLRF   2E
068A:  CLRF   2D
068B:  CLRF   2C
.................... 
....................    while(TRUE) {
....................       //maquina();
.................... 
....................       if (flag_segundo ==1 ) { //si paso 1s 
068C:  DECFSZ 29,W
068D:  GOTO   6CE
....................          flag_segundo = 0;
068E:  CLRF   29
....................          //flag_adc = 0;
....................          temperatura = leer_temperatura_LM75();   // leo temperatura del sensor
068F:  GOTO   355
0690:  MOVF   7A,W
0691:  MOVWF  2F
0692:  MOVF   79,W
0693:  MOVWF  2E
0694:  MOVF   78,W
0695:  MOVWF  2D
0696:  MOVF   77,W
0697:  MOVWF  2C
....................    
....................          // mostrar en LCD
....................          lcd_comando(0xC0);// segunda línea
0698:  MOVLW  C0
0699:  MOVWF  30
069A:  CALL   0B2
....................          printf(lcd_texto, "Temp: ");
069B:  MOVLW  5F
069C:  MOVLB  03
069D:  MOVWF  11
069E:  MOVLW  00
069F:  MOVWF  12
06A0:  MOVLB  00
06A1:  CALL   12B
....................          lcd_mostrar_float(temperatura);
06A2:  MOVF   2F,W
06A3:  MOVWF  33
06A4:  MOVF   2E,W
06A5:  MOVWF  32
06A6:  MOVF   2D,W
06A7:  MOVWF  31
06A8:  MOVF   2C,W
06A9:  MOVWF  30
06AA:  GOTO   482
....................          printf(lcd_texto, " C");
06AB:  MOVLW  20
06AC:  MOVWF  3A
06AD:  CALL   10F
06AE:  MOVLW  43
06AF:  MOVWF  3A
06B0:  CALL   10F
.................... 
....................       // mostrar por UART
....................       printf("\r\nTemperatura: %.2f C", temperatura);
06B1:  MOVLW  63
06B2:  MOVLB  03
06B3:  MOVWF  11
06B4:  MOVLW  00
06B5:  MOVWF  12
06B6:  BCF    03.0
06B7:  MOVLW  0F
06B8:  MOVLB  00
06B9:  MOVWF  30
06BA:  GOTO   4D4
06BB:  MOVLW  89
06BC:  MOVWF  04
06BD:  MOVF   2F,W
06BE:  MOVWF  33
06BF:  MOVF   2E,W
06C0:  MOVWF  32
06C1:  MOVF   2D,W
06C2:  MOVWF  31
06C3:  MOVF   2C,W
06C4:  MOVWF  30
06C5:  MOVLW  02
06C6:  MOVWF  34
06C7:  GOTO   572
06C8:  MOVLW  20
06C9:  MOVWF  40
06CA:  CALL   175
06CB:  MOVLW  43
06CC:  MOVWF  40
06CD:  CALL   175
....................       }
06CE:  GOTO   68C
....................      }
....................    }
.................... 
06CF:  SLEEP
.................... 
.................... void InitTimer0(void){ 
....................     setup_timer_0(RTCC_INTERNAL | RTCC_DIV_256); //prescaler 1:256
*
0102:  MOVLB  01
0103:  MOVF   15,W
0104:  ANDLW  C0
0105:  IORLW  07
0106:  MOVWF  15
....................     set_timer0(61);// valor inicial (50 ms)
0107:  MOVLW  3D
0108:  MOVLB  00
0109:  MOVWF  15
....................     enable_interrupts(INT_TIMER0);// habilito interrupción Timer0
010A:  BSF    0B.5
....................     enable_interrupts(GLOBAL);//habilito interrupciones globales
010B:  MOVLW  C0
010C:  IORWF  0B,F
010D:  MOVLP  00
010E:  GOTO   677 (RETURN)
.................... }
.................... 
.................... 
.................... // FUNCIONES I2C PARA EL LCD
.................... 
.................... 
.................... void lcd_enviar_4bits(int8 nibble, int1 es_texto) {
....................    
....................    int8 byte_i2c;
....................    byte_i2c = (nibble << 4);
*
0098:  SWAPF  3C,W
0099:  MOVWF  3E
009A:  MOVLW  F0
009B:  ANDWF  3E,F
....................    if(es_texto) byte_i2c |= LCD_RS;
009C:  MOVF   3D,F
009D:  BTFSS  03.2
009E:  BSF    3E.0
....................    i2c_write(byte_i2c | LCD_EN); // Sube el pin EN
009F:  MOVF   3E,W
00A0:  IORLW  04
00A1:  MOVWF  3F
00A2:  MOVWF  40
00A3:  CALL   084
....................    delay_us(10);
00A4:  MOVLW  03
00A5:  MOVWF  77
00A6:  DECFSZ 77,F
00A7:  GOTO   0A6
....................    i2c_write(byte_i2c & ~LCD_EN); //bajo el Enable
00A8:  MOVF   3E,W
00A9:  ANDLW  FB
00AA:  MOVWF  3F
00AB:  MOVWF  40
00AC:  CALL   084
....................    delay_us(40); //pauso el LCD
00AD:  MOVLW  0D
00AE:  MOVWF  77
00AF:  DECFSZ 77,F
00B0:  GOTO   0AF
00B1:  RETURN
....................    
.................... }
.................... 
.................... void lcd_comando(int8 comando) {
....................    
....................    
....................     i2c_start();//empiezo a hablar
00B2:  MOVLB  04
00B3:  BSF    16.0
00B4:  BTFSC  16.0
00B5:  GOTO   0B4
....................     i2c_write(I2C_LCD_DIR);//direccion LCD
00B6:  MOVLW  40
00B7:  MOVLB  00
00B8:  MOVWF  40
00B9:  CALL   084
....................     lcd_enviar_4bits(comando >> 4, 0); //4 bits más significativos
00BA:  SWAPF  30,W
00BB:  MOVWF  31
00BC:  MOVLW  0F
00BD:  ANDWF  31,F
00BE:  MOVF   31,W
00BF:  MOVWF  3C
00C0:  CLRF   3D
00C1:  CALL   098
....................     lcd_enviar_4bits(comando, 0);//4 bits menos significativos
00C2:  MOVF   30,W
00C3:  MOVWF  3C
00C4:  CLRF   3D
00C5:  CALL   098
....................     i2c_stop();//termine de comunicar
00C6:  MOVLB  04
00C7:  BSF    16.2
00C8:  BTFSC  16.2
00C9:  GOTO   0C8
....................     delay_ms(2);
00CA:  MOVLW  02
00CB:  MOVLB  00
00CC:  MOVWF  31
00CD:  CALL   06E
00CE:  RETURN
.................... }
.................... 
.................... void lcd_texto(char letra) {
.................... 
....................    
....................    i2c_start();//inicio la comunicacion
*
010F:  MOVLB  04
0110:  BSF    16.0
0111:  BTFSC  16.0
0112:  GOTO   111
....................    i2c_write(I2C_LCD_DIR); //digo a quien le hablo (LCD)
0113:  MOVLW  40
0114:  MOVLB  00
0115:  MOVWF  40
0116:  CALL   084
....................    lcd_enviar_4bits(letra>>4,1);//envio los 4 MSB
0117:  SWAPF  3A,W
0118:  MOVWF  3B
0119:  MOVLW  0F
011A:  ANDWF  3B,F
011B:  MOVF   3B,W
011C:  MOVWF  3C
011D:  MOVLW  01
011E:  MOVWF  3D
011F:  CALL   098
....................    lcd_enviar_4bits(letra,1);//envio los 4 LSB
0120:  MOVF   3A,W
0121:  MOVWF  3C
0122:  MOVLW  01
0123:  MOVWF  3D
0124:  CALL   098
....................    i2c_stop();
0125:  MOVLB  04
0126:  BSF    16.2
0127:  BTFSC  16.2
0128:  GOTO   127
0129:  MOVLB  00
012A:  RETURN
.................... }
.................... 
.................... void lcd_iniciar(void) {
....................    delay_ms(15);
*
00CF:  MOVLW  0F
00D0:  MOVWF  31
00D1:  CALL   06E
....................    lcd_enviar_4bits(0x03, 0);
00D2:  MOVLW  03
00D3:  MOVWF  3C
00D4:  CLRF   3D
00D5:  CALL   098
....................    delay_ms(5);
00D6:  MOVLW  05
00D7:  MOVWF  31
00D8:  CALL   06E
....................    lcd_enviar_4bits(0x03, 0);
00D9:  MOVLW  03
00DA:  MOVWF  3C
00DB:  CLRF   3D
00DC:  CALL   098
....................    delay_us(100);
00DD:  MOVLW  21
00DE:  MOVWF  77
00DF:  DECFSZ 77,F
00E0:  GOTO   0DF
....................    lcd_enviar_4bits(0x03, 0);
00E1:  MOVLW  03
00E2:  MOVWF  3C
00E3:  CLRF   3D
00E4:  CALL   098
....................    delay_us(100);
00E5:  MOVLW  21
00E6:  MOVWF  77
00E7:  DECFSZ 77,F
00E8:  GOTO   0E7
....................    lcd_enviar_4bits(0x02, 0);
00E9:  MOVLW  02
00EA:  MOVWF  3C
00EB:  CLRF   3D
00EC:  CALL   098
....................    delay_us(100);
00ED:  MOVLW  21
00EE:  MOVWF  77
00EF:  DECFSZ 77,F
00F0:  GOTO   0EF
.................... 
....................    lcd_comando(0x28);
00F1:  MOVLW  28
00F2:  MOVWF  30
00F3:  CALL   0B2
....................    lcd_comando(0x0C);
00F4:  MOVLW  0C
00F5:  MOVWF  30
00F6:  CALL   0B2
....................    lcd_comando(0x06);
00F7:  MOVLW  06
00F8:  MOVWF  30
00F9:  CALL   0B2
....................    lcd_comando(0x01);
00FA:  MOVLW  01
00FB:  MOVWF  30
00FC:  CALL   0B2
....................    delay_ms(2);
00FD:  MOVLW  02
00FE:  MOVWF  31
00FF:  CALL   06E
0100:  MOVLP  00
0101:  GOTO   676 (RETURN)
.................... }
.................... 
.................... // función para mostrar un número flotante en el LCD
.................... void lcd_mostrar_float(float num) {
*
0482:  MOVF   33,W
0483:  MOVWF  3B
0484:  MOVF   32,W
0485:  MOVWF  3A
0486:  MOVF   31,W
0487:  MOVWF  39
0488:  MOVF   30,W
0489:  MOVWF  38
048A:  CALL   3A4
048B:  MOVF   78,W
048C:  MOVWF  34
048D:  CLRF   39
048E:  MOVF   34,W
048F:  MOVWF  38
0490:  CALL   1F6
0491:  BSF    03.1
0492:  MOVF   33,W
0493:  MOVWF  3B
0494:  MOVF   32,W
0495:  MOVWF  3A
0496:  MOVF   31,W
0497:  MOVWF  39
0498:  MOVF   30,W
0499:  MOVWF  38
049A:  MOVF   7A,W
049B:  MOVWF  3F
049C:  MOVF   79,W
049D:  MOVWF  3E
049E:  MOVF   78,W
049F:  MOVWF  3D
04A0:  MOVF   77,W
04A1:  MOVWF  3C
04A2:  CALL   213
04A3:  MOVF   7A,W
04A4:  MOVWF  3B
04A5:  MOVF   79,W
04A6:  MOVWF  3A
04A7:  MOVF   78,W
04A8:  MOVWF  39
04A9:  MOVF   77,W
04AA:  MOVWF  38
04AB:  MOVF   7A,W
04AC:  MOVWF  43
04AD:  MOVF   79,W
04AE:  MOVWF  42
04AF:  MOVF   78,W
04B0:  MOVWF  41
04B1:  MOVF   77,W
04B2:  MOVWF  40
04B3:  CLRF   47
04B4:  CLRF   46
04B5:  MOVLW  48
04B6:  MOVWF  45
04B7:  MOVLW  85
04B8:  MOVWF  44
04B9:  CALL   3C3
04BA:  MOVF   7A,W
04BB:  MOVWF  3B
04BC:  MOVF   79,W
04BD:  MOVWF  3A
04BE:  MOVF   78,W
04BF:  MOVWF  39
04C0:  MOVF   77,W
04C1:  MOVWF  38
04C2:  CALL   3A4
04C3:  MOVF   78,W
04C4:  MOVWF  35
....................    int8 entero = (int8)num;
....................    int8 decimales = (int8)((num - entero) * 100);
....................    printf(lcd_texto, "%02u.%02u", entero, decimales);
04C5:  MOVF   34,W
04C6:  MOVWF  38
04C7:  MOVLW  01
04C8:  MOVWF  39
04C9:  CALL   44D
04CA:  MOVLW  2E
04CB:  MOVWF  3A
04CC:  CALL   10F
04CD:  MOVF   35,W
04CE:  MOVWF  38
04CF:  MOVLW  01
04D0:  MOVWF  39
04D1:  CALL   44D
04D2:  MOVLP  00
04D3:  GOTO   6AB (RETURN)
.................... }
.................... 
.................... 
.................... // LECTURA DE TEMPERATURA (LM75)
.................... 
.................... float leer_temperatura_LM75(void) {
....................    int8 msb, lsb;
....................    float temperatura;
.................... 
....................    i2c_start();
*
0355:  MOVLB  04
0356:  BSF    16.0
0357:  BTFSC  16.0
0358:  GOTO   357
....................    i2c_write(LM75_ADDR);     // dirección + bit de escritura
0359:  MOVLW  90
035A:  MOVLB  00
035B:  MOVWF  40
035C:  CALL   084
....................    i2c_write(0x00);          // registro de temperatura
035D:  CLRF   40
035E:  CALL   084
....................    i2c_start();              // repetir start para leer
035F:  MOVLB  04
0360:  BSF    16.1
0361:  BTFSC  16.1
0362:  GOTO   361
....................    i2c_write(LM75_ADDR | 1); // dirección + bit de lectura
0363:  MOVLW  91
0364:  MOVLB  00
0365:  MOVWF  40
0366:  CALL   084
....................    msb = i2c_read();         // 
0367:  MOVLW  01
0368:  MOVWF  77
0369:  CALL   1E6
036A:  MOVF   78,W
036B:  MOVWF  30
....................    lsb = i2c_read(0);        //  último byte
036C:  CLRF   77
036D:  CALL   1E6
036E:  MOVF   78,W
036F:  MOVWF  31
....................    i2c_stop();
0370:  MOVLB  04
0371:  BSF    16.2
0372:  BTFSC  16.2
0373:  GOTO   372
.................... 
....................    // LM75: 9 bits -> cada bit = 0.5°C
....................    temperatura = (float)msb;
0374:  MOVLB  00
0375:  CLRF   39
0376:  MOVF   30,W
0377:  MOVWF  38
0378:  CALL   1F6
0379:  MOVF   7A,W
037A:  MOVWF  35
037B:  MOVF   79,W
037C:  MOVWF  34
037D:  MOVF   78,W
037E:  MOVWF  33
037F:  MOVF   77,W
0380:  MOVWF  32
....................    if(lsb & 0x80) temperatura += 0.5;
0381:  BTFSS  31.7
0382:  GOTO   39A
0383:  BCF    03.1
0384:  MOVF   35,W
0385:  MOVWF  3B
0386:  MOVF   34,W
0387:  MOVWF  3A
0388:  MOVF   33,W
0389:  MOVWF  39
038A:  MOVF   32,W
038B:  MOVWF  38
038C:  CLRF   3F
038D:  CLRF   3E
038E:  CLRF   3D
038F:  MOVLW  7E
0390:  MOVWF  3C
0391:  CALL   213
0392:  MOVF   7A,W
0393:  MOVWF  35
0394:  MOVF   79,W
0395:  MOVWF  34
0396:  MOVF   78,W
0397:  MOVWF  33
0398:  MOVF   77,W
0399:  MOVWF  32
.................... 
....................    return temperatura;
039A:  MOVF   32,W
039B:  MOVWF  77
039C:  MOVF   33,W
039D:  MOVWF  78
039E:  MOVF   34,W
039F:  MOVWF  79
03A0:  MOVF   35,W
03A1:  MOVWF  7A
03A2:  MOVLP  00
03A3:  GOTO   690 (RETURN)
.................... }
.................... 
.................... 

Configuration Fuses:
   Word  1: 3F84   INTRC_IO NOWDT PUT NOMCLR NOPROTECT NOCPD BROWNOUT NOCLKOUT IESO FCMEN
   Word  2: 1EFF   NOWRT PLL_SW STVREN BORV19 NODEBUG NOLVP
