CCS PCM C Compiler, Version 5.093, 4770               16-oct-25 19:18

               Filename:   C:\Users\MPF\Desktop\Electr-nica-Digital-2\Guia 3\Ejercicio 6\ejercicio6.lst

               ROM used:   1647 words (40%)
                           Largest free fragment is 2048
               RAM used:   11 (3%) at main() level
                           52 (14%) worst case
               Stack used: 5 locations
               Stack size: 16

0000:  MOVLP  00
0001:  GOTO   5F6
0002:  NOP
.................... #include <ejercicio6.h>
.................... #include <16F1827.h>
.................... //////////// Standard Header file for the PIC16F1827 device ////////////////
.................... ///////////////////////////////////////////////////////////////////////////
.................... ////        (C) Copyright 1996, 2014 Custom Computer Services          ////
.................... //// This source code may only be used by licensed users of the CCS C  ////
.................... //// compiler.  This source code may only be distributed to other      ////
.................... //// licensed users of the CCS C compiler.  No other use, reproduction ////
.................... //// or distribution is permitted without written permission.          ////
.................... //// Derivative programs created using this software in object code    ////
.................... //// form are not restricted in any way.                               ////
.................... ///////////////////////////////////////////////////////////////////////////
.................... #device PIC16F1827
0003:  DATA D4,22
0004:  DATA 4D,28
0005:  DATA 20,26
0006:  DATA CD,1B
0007:  DATA 35,10
0008:  DATA 49,19
0009:  DATA 43,00
000A:  DATA 0D,05
000B:  DATA AD,16
000C:  DATA 2D,10
000D:  DATA CC,32
000E:  DATA 63,3A
000F:  DATA 75,39
0010:  DATA 61,10
0011:  DATA CC,26
0012:  DATA B7,1A
0013:  DATA A0,16
0014:  DATA AD,16
0015:  DATA 0D,05
0016:  DATA 00,00
0017:  DATA D4,32
0018:  DATA 6D,38
0019:  DATA 3A,10
001A:  DATA 00,01
001B:  DATA 0D,05
001C:  DATA D4,32
001D:  DATA 6D,38
001E:  DATA 65,39
001F:  DATA 61,3A
0020:  DATA 75,39
0021:  DATA 61,1D
0022:  DATA A0,12
0023:  DATA 2E,19
0024:  DATA 66,10
0025:  DATA 43,00
*
00CD:  MOVF   0B,W
00CE:  BCF    0B.7
00CF:  MOVLB  03
00D0:  BSF    15.7
00D1:  BSF    15.0
00D2:  NOP
00D3:  NOP
00D4:  BTFSC  09.7
00D5:  BSF    0B.7
00D6:  MOVF   13,W
00D7:  ANDLW  7F
00D8:  BTFSC  03.2
00D9:  GOTO   115
00DA:  MOVLB  00
00DB:  MOVWF  28
00DC:  MOVLB  03
00DD:  MOVF   11,W
00DE:  MOVLB  00
00DF:  MOVWF  29
00E0:  MOVLB  03
00E1:  MOVF   12,W
00E2:  MOVLB  00
00E3:  MOVWF  2A
00E4:  MOVF   28,W
00E5:  MOVWF  2E
00E6:  CALL   0BA
00E7:  MOVF   29,W
00E8:  MOVLB  03
00E9:  MOVWF  11
00EA:  MOVLB  00
00EB:  MOVF   2A,W
00EC:  MOVLB  03
00ED:  MOVWF  12
00EE:  MOVF   0B,W
00EF:  BCF    0B.7
00F0:  BSF    15.7
00F1:  BSF    15.0
00F2:  NOP
00F3:  NOP
00F4:  BTFSC  09.7
00F5:  BSF    0B.7
00F6:  RLF    13,W
00F7:  RLF    14,W
00F8:  ANDLW  7F
00F9:  BTFSC  03.2
00FA:  GOTO   115
00FB:  MOVLB  00
00FC:  MOVWF  28
00FD:  MOVLB  03
00FE:  MOVF   11,W
00FF:  MOVLB  00
0100:  MOVWF  29
0101:  MOVLB  03
0102:  MOVF   12,W
0103:  MOVLB  00
0104:  MOVWF  2A
0105:  MOVF   28,W
0106:  MOVWF  2E
0107:  CALL   0BA
0108:  MOVF   29,W
0109:  MOVLB  03
010A:  MOVWF  11
010B:  MOVLB  00
010C:  MOVF   2A,W
010D:  MOVLB  03
010E:  MOVWF  12
010F:  INCF   11,F
0110:  BTFSC  03.2
0111:  INCF   12,F
0112:  MOVLB  00
0113:  GOTO   0CD
0114:  MOVLB  03
0115:  MOVLB  00
0116:  RETURN
*
013D:  MOVF   0B,W
013E:  BCF    0B.7
013F:  MOVLB  03
0140:  BSF    15.7
0141:  BSF    15.0
0142:  NOP
0143:  NOP
0144:  BTFSC  09.7
0145:  BSF    0B.7
0146:  MOVF   13,W
0147:  ANDLW  7F
0148:  BTFSC  03.2
0149:  GOTO   185
014A:  MOVLB  00
014B:  MOVWF  28
014C:  MOVLB  03
014D:  MOVF   11,W
014E:  MOVLB  00
014F:  MOVWF  29
0150:  MOVLB  03
0151:  MOVF   12,W
0152:  MOVLB  00
0153:  MOVWF  2A
0154:  MOVF   28,W
0155:  MOVWF  38
0156:  CALL   117
0157:  MOVF   29,W
0158:  MOVLB  03
0159:  MOVWF  11
015A:  MOVLB  00
015B:  MOVF   2A,W
015C:  MOVLB  03
015D:  MOVWF  12
015E:  MOVF   0B,W
015F:  BCF    0B.7
0160:  BSF    15.7
0161:  BSF    15.0
0162:  NOP
0163:  NOP
0164:  BTFSC  09.7
0165:  BSF    0B.7
0166:  RLF    13,W
0167:  RLF    14,W
0168:  ANDLW  7F
0169:  BTFSC  03.2
016A:  GOTO   185
016B:  MOVLB  00
016C:  MOVWF  28
016D:  MOVLB  03
016E:  MOVF   11,W
016F:  MOVLB  00
0170:  MOVWF  29
0171:  MOVLB  03
0172:  MOVF   12,W
0173:  MOVLB  00
0174:  MOVWF  2A
0175:  MOVF   28,W
0176:  MOVWF  38
0177:  CALL   117
0178:  MOVF   29,W
0179:  MOVLB  03
017A:  MOVWF  11
017B:  MOVLB  00
017C:  MOVF   2A,W
017D:  MOVLB  03
017E:  MOVWF  12
017F:  INCF   11,F
0180:  BTFSC  03.2
0181:  INCF   12,F
0182:  MOVLB  00
0183:  GOTO   13D
0184:  MOVLB  03
0185:  MOVLP  00
0186:  MOVLB  00
0187:  GOTO   627 (RETURN)
*
0198:  MOVLW  8E
0199:  MOVWF  77
019A:  MOVF   2D,W
019B:  MOVWF  78
019C:  MOVF   2C,W
019D:  MOVWF  79
019E:  CLRF   7A
019F:  MOVF   78,F
01A0:  BTFSS  03.2
01A1:  GOTO   1AC
01A2:  MOVF   79,W
01A3:  MOVWF  78
01A4:  CLRF   79
01A5:  MOVLW  08
01A6:  SUBWF  77,F
01A7:  MOVF   78,F
01A8:  BTFSS  03.2
01A9:  GOTO   1AC
01AA:  CLRF   77
01AB:  GOTO   1B4
01AC:  BCF    03.0
01AD:  BTFSC  78.7
01AE:  GOTO   1B3
01AF:  RLF    79,F
01B0:  RLF    78,F
01B1:  DECF   77,F
01B2:  GOTO   1AC
01B3:  BCF    78.7
01B4:  RETURN
01B5:  MOVLW  80
01B6:  BTFSC  03.1
01B7:  XORWF  31,F
01B8:  CLRF   3A
01B9:  CLRF   3B
01BA:  MOVF   2D,W
01BB:  MOVWF  39
01BC:  MOVF   31,W
01BD:  XORWF  39,F
01BE:  MOVF   2C,W
01BF:  BTFSC  03.2
01C0:  GOTO   2A8
01C1:  MOVWF  38
01C2:  MOVWF  77
01C3:  MOVF   30,W
01C4:  BTFSC  03.2
01C5:  GOTO   2B1
01C6:  SUBWF  38,F
01C7:  BTFSC  03.2
01C8:  GOTO   24C
01C9:  BTFSS  03.0
01CA:  GOTO   209
01CB:  MOVF   31,W
01CC:  MOVWF  3E
01CD:  BSF    3E.7
01CE:  MOVF   32,W
01CF:  MOVWF  3D
01D0:  MOVF   33,W
01D1:  MOVWF  3C
01D2:  CLRF   3B
01D3:  BCF    03.0
01D4:  RRF    3E,F
01D5:  RRF    3D,F
01D6:  RRF    3C,F
01D7:  RRF    3B,F
01D8:  DECFSZ 38,F
01D9:  GOTO   1D2
01DA:  BTFSS  39.7
01DB:  GOTO   1DF
01DC:  BSF    3A.0
01DD:  GOTO   2C5
01DE:  BCF    3A.0
01DF:  BCF    38.0
01E0:  BSF    3A.4
01E1:  MOVLW  20
01E2:  MOVWF  05
01E3:  MOVLW  0F
01E4:  MOVWF  04
01E5:  GOTO   2DA
01E6:  BCF    3A.4
01E7:  BTFSC  39.7
01E8:  GOTO   1F3
01E9:  BTFSS  38.0
01EA:  GOTO   1FE
01EB:  RRF    3E,F
01EC:  RRF    3D,F
01ED:  RRF    3C,F
01EE:  RRF    3B,F
01EF:  INCF   77,F
01F0:  BTFSC  03.2
01F1:  GOTO   2C0
01F2:  GOTO   1FE
01F3:  BTFSC  3E.7
01F4:  GOTO   201
01F5:  BCF    03.0
01F6:  RLF    3B,F
01F7:  RLF    3C,F
01F8:  RLF    3D,F
01F9:  RLF    3E,F
01FA:  DECF   77,F
01FB:  BTFSC  03.2
01FC:  GOTO   2C0
01FD:  GOTO   1F3
01FE:  BSF    3A.6
01FF:  GOTO   26D
0200:  BCF    3A.6
0201:  MOVF   2D,W
0202:  MOVWF  39
0203:  BTFSS  39.7
0204:  GOTO   207
0205:  BSF    3E.7
0206:  GOTO   2B9
0207:  BCF    3E.7
0208:  GOTO   2B9
0209:  MOVF   30,W
020A:  MOVWF  38
020B:  MOVWF  77
020C:  MOVF   2C,W
020D:  SUBWF  38,F
020E:  MOVF   2D,W
020F:  MOVWF  3E
0210:  BSF    3E.7
0211:  MOVF   2E,W
0212:  MOVWF  3D
0213:  MOVF   2F,W
0214:  MOVWF  3C
0215:  CLRF   3B
0216:  BCF    03.0
0217:  RRF    3E,F
0218:  RRF    3D,F
0219:  RRF    3C,F
021A:  RRF    3B,F
021B:  DECFSZ 38,F
021C:  GOTO   215
021D:  BTFSS  39.7
021E:  GOTO   222
021F:  BSF    3A.1
0220:  GOTO   2C5
0221:  BCF    3A.1
0222:  BCF    38.0
0223:  BSF    3A.5
0224:  MOVLW  20
0225:  MOVWF  05
0226:  MOVLW  13
0227:  MOVWF  04
0228:  GOTO   2DA
0229:  BCF    3A.5
022A:  BTFSC  39.7
022B:  GOTO   236
022C:  BTFSS  38.0
022D:  GOTO   241
022E:  RRF    3E,F
022F:  RRF    3D,F
0230:  RRF    3C,F
0231:  RRF    3B,F
0232:  INCF   77,F
0233:  BTFSC  03.2
0234:  GOTO   2C0
0235:  GOTO   241
0236:  BTFSC  3E.7
0237:  GOTO   244
0238:  BCF    03.0
0239:  RLF    3B,F
023A:  RLF    3C,F
023B:  RLF    3D,F
023C:  RLF    3E,F
023D:  DECF   77,F
023E:  BTFSC  03.2
023F:  GOTO   2C0
0240:  GOTO   236
0241:  BSF    3A.7
0242:  GOTO   26D
0243:  BCF    3A.7
0244:  MOVF   31,W
0245:  MOVWF  39
0246:  BTFSS  39.7
0247:  GOTO   24A
0248:  BSF    3E.7
0249:  GOTO   2B9
024A:  BCF    3E.7
024B:  GOTO   2B9
024C:  MOVF   31,W
024D:  MOVWF  3E
024E:  BSF    3E.7
024F:  MOVF   32,W
0250:  MOVWF  3D
0251:  MOVF   33,W
0252:  MOVWF  3C
0253:  BTFSS  39.7
0254:  GOTO   259
0255:  BCF    3E.7
0256:  BSF    3A.2
0257:  GOTO   2C5
0258:  BCF    3A.2
0259:  CLRF   3B
025A:  BCF    38.0
025B:  MOVLW  20
025C:  MOVWF  05
025D:  MOVLW  0F
025E:  MOVWF  04
025F:  GOTO   2DA
0260:  BTFSC  39.7
0261:  GOTO   283
0262:  MOVF   2D,W
0263:  MOVWF  39
0264:  BTFSS  38.0
0265:  GOTO   26D
0266:  RRF    3E,F
0267:  RRF    3D,F
0268:  RRF    3C,F
0269:  RRF    3B,F
026A:  INCF   77,F
026B:  BTFSC  03.2
026C:  GOTO   2C0
026D:  BTFSS  3B.7
026E:  GOTO   27E
026F:  INCF   3C,F
0270:  BTFSS  03.2
0271:  GOTO   27E
0272:  INCF   3D,F
0273:  BTFSS  03.2
0274:  GOTO   27E
0275:  INCF   3E,F
0276:  BTFSS  03.2
0277:  GOTO   27E
0278:  RRF    3E,F
0279:  RRF    3D,F
027A:  RRF    3C,F
027B:  INCF   77,F
027C:  BTFSC  03.2
027D:  GOTO   2C0
027E:  BTFSC  3A.6
027F:  GOTO   200
0280:  BTFSC  3A.7
0281:  GOTO   243
0282:  GOTO   2A2
0283:  MOVLW  80
0284:  XORWF  3E,F
0285:  BTFSS  3E.7
0286:  GOTO   28B
0287:  GOTO   2C5
0288:  MOVF   31,W
0289:  MOVWF  39
028A:  GOTO   298
028B:  MOVF   2D,W
028C:  MOVWF  39
028D:  MOVF   3E,F
028E:  BTFSS  03.2
028F:  GOTO   298
0290:  MOVF   3D,F
0291:  BTFSS  03.2
0292:  GOTO   298
0293:  MOVF   3C,F
0294:  BTFSS  03.2
0295:  GOTO   298
0296:  CLRF   77
0297:  GOTO   2B9
0298:  BTFSC  3E.7
0299:  GOTO   2A2
029A:  BCF    03.0
029B:  RLF    3B,F
029C:  RLF    3C,F
029D:  RLF    3D,F
029E:  RLF    3E,F
029F:  DECFSZ 77,F
02A0:  GOTO   298
02A1:  GOTO   2C0
02A2:  BTFSS  39.7
02A3:  GOTO   2A6
02A4:  BSF    3E.7
02A5:  GOTO   2B9
02A6:  BCF    3E.7
02A7:  GOTO   2B9
02A8:  MOVF   30,W
02A9:  MOVWF  77
02AA:  MOVF   31,W
02AB:  MOVWF  3E
02AC:  MOVF   32,W
02AD:  MOVWF  3D
02AE:  MOVF   33,W
02AF:  MOVWF  3C
02B0:  GOTO   2B9
02B1:  MOVF   2C,W
02B2:  MOVWF  77
02B3:  MOVF   2D,W
02B4:  MOVWF  3E
02B5:  MOVF   2E,W
02B6:  MOVWF  3D
02B7:  MOVF   2F,W
02B8:  MOVWF  3C
02B9:  MOVF   3E,W
02BA:  MOVWF  78
02BB:  MOVF   3D,W
02BC:  MOVWF  79
02BD:  MOVF   3C,W
02BE:  MOVWF  7A
02BF:  GOTO   2F6
02C0:  CLRF   77
02C1:  CLRF   78
02C2:  CLRF   79
02C3:  CLRF   7A
02C4:  GOTO   2F6
02C5:  CLRF   3B
02C6:  COMF   3C,F
02C7:  COMF   3D,F
02C8:  COMF   3E,F
02C9:  COMF   3B,F
02CA:  INCF   3B,F
02CB:  BTFSS  03.2
02CC:  GOTO   2D3
02CD:  INCF   3C,F
02CE:  BTFSS  03.2
02CF:  GOTO   2D3
02D0:  INCF   3D,F
02D1:  BTFSC  03.2
02D2:  INCF   3E,F
02D3:  BTFSC  3A.0
02D4:  GOTO   1DE
02D5:  BTFSC  3A.1
02D6:  GOTO   221
02D7:  BTFSC  3A.2
02D8:  GOTO   258
02D9:  GOTO   288
02DA:  MOVF   00,W
02DB:  ADDWF  3C,F
02DC:  BTFSS  03.0
02DD:  GOTO   2E4
02DE:  INCF   3D,F
02DF:  BTFSS  03.2
02E0:  GOTO   2E4
02E1:  INCF   3E,F
02E2:  BTFSC  03.2
02E3:  BSF    38.0
02E4:  MOVIW  [--FSR0],W
02E5:  ADDWF  3D,F
02E6:  BTFSS  03.0
02E7:  GOTO   2EB
02E8:  INCF   3E,F
02E9:  BTFSC  03.2
02EA:  BSF    38.0
02EB:  MOVIW  [--FSR0],W
02EC:  BTFSS  00.7
02ED:  XORLW  80
02EE:  ADDWF  3E,F
02EF:  BTFSC  03.0
02F0:  BSF    38.0
02F1:  BTFSC  3A.4
02F2:  GOTO   1E6
02F3:  BTFSC  3A.5
02F4:  GOTO   229
02F5:  GOTO   260
02F6:  RETURN
*
0346:  MOVLW  8E
0347:  MOVWF  77
0348:  MOVF   2C,W
0349:  SUBWF  77,F
034A:  MOVF   2D,W
034B:  MOVWF  79
034C:  MOVF   2E,W
034D:  MOVWF  78
034E:  BSF    79.7
034F:  MOVF   77,F
0350:  BTFSC  03.2
0351:  GOTO   35D
0352:  BCF    03.0
0353:  MOVF   79,F
0354:  BTFSS  03.2
0355:  GOTO   359
0356:  MOVF   78,F
0357:  BTFSC  03.2
0358:  GOTO   35D
0359:  RRF    79,F
035A:  RRF    78,F
035B:  DECFSZ 77,F
035C:  GOTO   352
035D:  BTFSS  2D.7
035E:  GOTO   364
035F:  COMF   78,F
0360:  COMF   79,F
0361:  INCF   78,F
0362:  BTFSC  03.2
0363:  INCF   79,F
0364:  RETURN
0365:  MOVF   38,W
0366:  BTFSC  03.2
0367:  GOTO   3D5
0368:  MOVWF  43
0369:  MOVF   3C,W
036A:  BTFSC  03.2
036B:  GOTO   3D5
036C:  ADDWF  43,F
036D:  BTFSC  03.0
036E:  GOTO   376
036F:  MOVLW  7F
0370:  SUBWF  43,F
0371:  BTFSS  03.0
0372:  GOTO   3D5
0373:  BTFSC  03.2
0374:  GOTO   3D5
0375:  GOTO   37A
0376:  MOVLW  81
0377:  ADDWF  43,F
0378:  BTFSC  03.0
0379:  GOTO   3D5
037A:  MOVF   43,W
037B:  MOVWF  77
037C:  CLRF   78
037D:  CLRF   79
037E:  CLRF   7A
037F:  MOVF   39,W
0380:  MOVWF  47
0381:  BSF    47.7
0382:  MOVF   3A,W
0383:  MOVWF  46
0384:  MOVF   3B,W
0385:  MOVWF  45
0386:  MOVLW  18
0387:  MOVWF  43
0388:  CLRF   44
0389:  BTFSS  45.0
038A:  GOTO   3A3
038B:  MOVF   3F,W
038C:  ADDWF  7A,F
038D:  BTFSS  03.0
038E:  GOTO   395
038F:  INCF   79,F
0390:  BTFSS  03.2
0391:  GOTO   395
0392:  INCF   78,F
0393:  BTFSC  03.2
0394:  BSF    44.7
0395:  MOVF   3E,W
0396:  ADDWF  79,F
0397:  BTFSS  03.0
0398:  GOTO   39C
0399:  INCF   78,F
039A:  BTFSC  03.2
039B:  BSF    44.7
039C:  MOVF   3D,W
039D:  MOVWF  3A
039E:  BSF    3A.7
039F:  MOVF   3A,W
03A0:  ADDWF  78,F
03A1:  BTFSC  03.0
03A2:  BSF    44.7
03A3:  RLF    44,F
03A4:  RRF    78,F
03A5:  RRF    79,F
03A6:  RRF    7A,F
03A7:  RRF    47,F
03A8:  RRF    46,F
03A9:  RRF    45,F
03AA:  BCF    03.0
03AB:  DECFSZ 43,F
03AC:  GOTO   388
03AD:  MOVLW  01
03AE:  ADDWF  77,F
03AF:  BTFSC  03.0
03B0:  GOTO   3D5
03B1:  BTFSC  78.7
03B2:  GOTO   3BA
03B3:  RLF    47,F
03B4:  RLF    7A,F
03B5:  RLF    79,F
03B6:  RLF    78,F
03B7:  DECF   77,F
03B8:  BTFSC  03.2
03B9:  GOTO   3D5
03BA:  BTFSS  47.7
03BB:  GOTO   3CB
03BC:  INCF   7A,F
03BD:  BTFSS  03.2
03BE:  GOTO   3CB
03BF:  INCF   79,F
03C0:  BTFSS  03.2
03C1:  GOTO   3CB
03C2:  INCF   78,F
03C3:  BTFSS  03.2
03C4:  GOTO   3CB
03C5:  RRF    78,F
03C6:  RRF    79,F
03C7:  RRF    7A,F
03C8:  INCF   77,F
03C9:  BTFSC  03.2
03CA:  GOTO   3D5
03CB:  MOVF   39,W
03CC:  MOVWF  44
03CD:  MOVF   3D,W
03CE:  XORWF  44,F
03CF:  BTFSS  44.7
03D0:  GOTO   3D3
03D1:  BSF    78.7
03D2:  GOTO   3D9
03D3:  BCF    78.7
03D4:  GOTO   3D9
03D5:  CLRF   77
03D6:  CLRF   78
03D7:  CLRF   79
03D8:  CLRF   7A
03D9:  RETURN
03DA:  MOVF   2F,W
03DB:  CLRF   78
03DC:  SUBWF  2E,W
03DD:  BTFSC  03.0
03DE:  GOTO   3E2
03DF:  MOVF   2E,W
03E0:  MOVWF  77
03E1:  GOTO   3EE
03E2:  CLRF   77
03E3:  MOVLW  08
03E4:  MOVWF  30
03E5:  RLF    2E,F
03E6:  RLF    77,F
03E7:  MOVF   2F,W
03E8:  SUBWF  77,W
03E9:  BTFSC  03.0
03EA:  MOVWF  77
03EB:  RLF    78,F
03EC:  DECFSZ 30,F
03ED:  GOTO   3E5
03EE:  RETURN
03EF:  MOVF   78,W
03F0:  MOVF   2C,W
03F1:  MOVWF  2E
03F2:  MOVLW  64
03F3:  MOVWF  2F
03F4:  CALL   3DA
03F5:  MOVF   77,W
03F6:  MOVWF  2C
03F7:  MOVF   78,W
03F8:  MOVLW  30
03F9:  BTFSS  03.2
03FA:  GOTO   402
03FB:  BTFSS  2D.1
03FC:  GOTO   409
03FD:  BTFSC  2D.3
03FE:  GOTO   409
03FF:  BTFSC  2D.4
0400:  MOVLW  20
0401:  GOTO   405
0402:  BCF    2D.3
0403:  BCF    2D.4
0404:  BSF    2D.0
0405:  ADDWF  78,F
0406:  MOVF   78,W
0407:  MOVWF  2E
0408:  CALL   0BA
0409:  MOVF   2C,W
040A:  MOVWF  2E
040B:  MOVLW  0A
040C:  MOVWF  2F
040D:  CALL   3DA
040E:  MOVF   77,W
040F:  MOVWF  2C
0410:  MOVF   78,W
0411:  MOVLW  30
0412:  BTFSS  03.2
0413:  GOTO   41A
0414:  BTFSC  2D.3
0415:  GOTO   41E
0416:  BTFSS  2D.0
0417:  GOTO   41E
0418:  BTFSC  2D.4
0419:  MOVLW  20
041A:  ADDWF  78,F
041B:  MOVF   78,W
041C:  MOVWF  2E
041D:  CALL   0BA
041E:  MOVLW  30
041F:  ADDWF  2C,F
0420:  MOVF   2C,W
0421:  MOVWF  2E
0422:  CALL   0BA
0423:  RETURN
*
0476:  MOVF   0B,W
0477:  BCF    0B.7
0478:  MOVLB  03
0479:  BSF    15.7
047A:  BSF    15.0
047B:  NOP
047C:  NOP
047D:  BTFSC  09.7
047E:  BSF    0B.7
047F:  BTFSC  03.0
0480:  GOTO   4A7
0481:  MOVF   13,W
0482:  ANDLW  7F
0483:  MOVLB  00
0484:  MOVWF  28
0485:  MOVLB  03
0486:  MOVF   11,W
0487:  MOVLB  00
0488:  MOVWF  29
0489:  MOVLB  03
048A:  MOVF   12,W
048B:  MOVLB  00
048C:  MOVWF  2A
048D:  MOVF   28,W
048E:  MOVWF  38
048F:  CALL   117
0490:  MOVF   29,W
0491:  MOVLB  03
0492:  MOVWF  11
0493:  MOVLB  00
0494:  MOVF   2A,W
0495:  MOVLB  03
0496:  MOVWF  12
0497:  MOVF   0B,W
0498:  BCF    0B.7
0499:  BSF    15.7
049A:  BSF    15.0
049B:  NOP
049C:  NOP
049D:  BTFSC  09.7
049E:  BSF    0B.7
049F:  MOVLB  00
04A0:  DECFSZ 26,F
04A1:  GOTO   4A3
04A2:  GOTO   4A5
04A3:  MOVLB  03
04A4:  GOTO   4A7
04A5:  GOTO   4C5
04A6:  MOVLB  03
04A7:  RLF    13,W
04A8:  RLF    14,W
04A9:  ANDLW  7F
04AA:  MOVLB  00
04AB:  MOVWF  28
04AC:  MOVLB  03
04AD:  MOVF   11,W
04AE:  MOVLB  00
04AF:  MOVWF  29
04B0:  MOVLB  03
04B1:  MOVF   12,W
04B2:  MOVLB  00
04B3:  MOVWF  2A
04B4:  MOVF   28,W
04B5:  MOVWF  38
04B6:  CALL   117
04B7:  MOVF   29,W
04B8:  MOVLB  03
04B9:  MOVWF  11
04BA:  MOVLB  00
04BB:  MOVF   2A,W
04BC:  MOVLB  03
04BD:  MOVWF  12
04BE:  INCF   11,F
04BF:  BTFSC  03.2
04C0:  INCF   12,F
04C1:  BCF    03.0
04C2:  MOVLB  00
04C3:  DECFSZ 26,F
04C4:  GOTO   476
04C5:  MOVLP  00
04C6:  GOTO   653 (RETURN)
04C7:  BTFSC  03.1
04C8:  GOTO   4CD
04C9:  MOVLW  20
04CA:  MOVWF  05
04CB:  MOVLW  23
04CC:  MOVWF  04
04CD:  CLRF   77
04CE:  CLRF   78
04CF:  CLRF   79
04D0:  CLRF   7A
04D1:  CLRF   43
04D2:  CLRF   44
04D3:  CLRF   45
04D4:  CLRF   46
04D5:  MOVF   3F,W
04D6:  IORWF  3E,W
04D7:  IORWF  3D,W
04D8:  IORWF  3C,W
04D9:  BTFSC  03.2
04DA:  GOTO   50B
04DB:  MOVLW  20
04DC:  MOVWF  47
04DD:  BCF    03.0
04DE:  RLF    38,F
04DF:  RLF    39,F
04E0:  RLF    3A,F
04E1:  RLF    3B,F
04E2:  RLF    43,F
04E3:  RLF    44,F
04E4:  RLF    45,F
04E5:  RLF    46,F
04E6:  MOVF   3F,W
04E7:  SUBWF  46,W
04E8:  BTFSS  03.2
04E9:  GOTO   4F4
04EA:  MOVF   3E,W
04EB:  SUBWF  45,W
04EC:  BTFSS  03.2
04ED:  GOTO   4F4
04EE:  MOVF   3D,W
04EF:  SUBWF  44,W
04F0:  BTFSS  03.2
04F1:  GOTO   4F4
04F2:  MOVF   3C,W
04F3:  SUBWF  43,W
04F4:  BTFSS  03.0
04F5:  GOTO   505
04F6:  MOVF   3C,W
04F7:  SUBWF  43,F
04F8:  MOVF   3D,W
04F9:  BTFSS  03.0
04FA:  INCFSZ 3D,W
04FB:  SUBWF  44,F
04FC:  MOVF   3E,W
04FD:  BTFSS  03.0
04FE:  INCFSZ 3E,W
04FF:  SUBWF  45,F
0500:  MOVF   3F,W
0501:  BTFSS  03.0
0502:  INCFSZ 3F,W
0503:  SUBWF  46,F
0504:  BSF    03.0
0505:  RLF    77,F
0506:  RLF    78,F
0507:  RLF    79,F
0508:  RLF    7A,F
0509:  DECFSZ 47,F
050A:  GOTO   4DD
050B:  MOVF   43,W
050C:  MOVWF  00
050D:  MOVF   44,W
050E:  MOVWI  W,[FSR0+01]
050F:  MOVF   45,W
0510:  MOVWI  W,[FSR0+02]
0511:  MOVF   46,W
0512:  MOVWI  W,[FSR0+03]
0513:  RETURN
0514:  MOVF   04,W
0515:  MOVWF  30
0516:  MOVF   2A,W
0517:  MOVWF  32
0518:  BTFSC  03.2
0519:  GOTO   533
051A:  MOVF   29,W
051B:  MOVWF  3B
051C:  MOVF   28,W
051D:  MOVWF  3A
051E:  MOVF   27,W
051F:  MOVWF  39
0520:  MOVF   26,W
0521:  MOVWF  38
0522:  CLRF   3F
0523:  CLRF   3E
0524:  MOVLW  20
0525:  MOVWF  3D
0526:  MOVLW  82
0527:  MOVWF  3C
0528:  CALL   365
0529:  MOVF   7A,W
052A:  MOVWF  29
052B:  MOVF   79,W
052C:  MOVWF  28
052D:  MOVF   78,W
052E:  MOVWF  27
052F:  MOVF   77,W
0530:  MOVWF  26
0531:  DECFSZ 32,F
0532:  GOTO   51A
0533:  MOVF   29,W
0534:  MOVWF  3B
0535:  MOVF   28,W
0536:  MOVWF  3A
0537:  MOVF   27,W
0538:  MOVWF  39
0539:  MOVF   26,W
053A:  MOVWF  38
053B:  MOVF   38,W
053C:  SUBLW  B6
053D:  MOVWF  38
053E:  CLRF   7A
053F:  MOVF   39,W
0540:  MOVWF  3C
0541:  BSF    39.7
0542:  BCF    03.0
0543:  RRF    39,F
0544:  RRF    3A,F
0545:  RRF    3B,F
0546:  RRF    7A,F
0547:  RRF    79,F
0548:  RRF    78,F
0549:  RRF    77,F
054A:  DECFSZ 38,F
054B:  GOTO   542
054C:  BTFSS  3C.7
054D:  GOTO   559
054E:  COMF   77,F
054F:  COMF   78,F
0550:  COMF   79,F
0551:  COMF   7A,F
0552:  INCF   77,F
0553:  BTFSC  03.2
0554:  INCF   78,F
0555:  BTFSC  03.2
0556:  INCF   79,F
0557:  BTFSC  03.2
0558:  INCF   7A,F
0559:  MOVF   7A,W
055A:  MOVWF  29
055B:  MOVF   79,W
055C:  MOVWF  28
055D:  MOVF   78,W
055E:  MOVWF  27
055F:  MOVF   77,W
0560:  MOVWF  26
0561:  BTFSS  29.7
0562:  GOTO   570
0563:  DECF   30,F
0564:  BSF    30.5
0565:  COMF   26,F
0566:  COMF   27,F
0567:  COMF   28,F
0568:  COMF   29,F
0569:  INCF   26,F
056A:  BTFSC  03.2
056B:  INCF   27,F
056C:  BTFSC  03.2
056D:  INCF   28,F
056E:  BTFSC  03.2
056F:  INCF   29,F
0570:  MOVLW  3B
0571:  MOVWF  37
0572:  MOVLW  9A
0573:  MOVWF  36
0574:  MOVLW  CA
0575:  MOVWF  35
0576:  CLRF   34
0577:  MOVLW  0A
0578:  MOVWF  32
0579:  MOVF   2A,W
057A:  BTFSC  03.2
057B:  INCF   30,F
057C:  BSF    03.1
057D:  MOVLW  20
057E:  MOVWF  05
057F:  MOVLW  06
0580:  MOVWF  04
0581:  MOVF   29,W
0582:  MOVWF  3B
0583:  MOVF   28,W
0584:  MOVWF  3A
0585:  MOVF   27,W
0586:  MOVWF  39
0587:  MOVF   26,W
0588:  MOVWF  38
0589:  MOVF   37,W
058A:  MOVWF  3F
058B:  MOVF   36,W
058C:  MOVWF  3E
058D:  MOVF   35,W
058E:  MOVWF  3D
058F:  MOVF   34,W
0590:  MOVWF  3C
0591:  CALL   4C7
0592:  MOVF   78,W
0593:  MOVF   77,F
0594:  BTFSS  03.2
0595:  GOTO   5A9
0596:  INCF   2A,W
0597:  SUBWF  32,W
0598:  BTFSC  03.2
0599:  GOTO   5A9
059A:  MOVF   30,W
059B:  BTFSC  03.2
059C:  GOTO   5AB
059D:  ANDLW  0F
059E:  SUBWF  32,W
059F:  BTFSC  03.2
05A0:  GOTO   5A3
05A1:  BTFSC  03.0
05A2:  GOTO   5DB
05A3:  BTFSC  30.7
05A4:  GOTO   5DB
05A5:  BTFSC  30.6
05A6:  GOTO   5AB
05A7:  MOVLW  20
05A8:  GOTO   5D7
05A9:  MOVLW  20
05AA:  ANDWF  30,F
05AB:  BTFSS  30.5
05AC:  GOTO   5B9
05AD:  BCF    30.5
05AE:  MOVF   2A,W
05AF:  BTFSS  03.2
05B0:  DECF   30,F
05B1:  MOVF   77,W
05B2:  MOVWF  30
05B3:  MOVLW  2D
05B4:  MOVWF  38
05B5:  CALL   117
05B6:  MOVF   30,W
05B7:  MOVWF  77
05B8:  CLRF   30
05B9:  MOVF   2A,W
05BA:  SUBWF  32,W
05BB:  BTFSS  03.2
05BC:  GOTO   5C7
05BD:  MOVF   77,W
05BE:  MOVWF  30
05BF:  MOVLW  2E
05C0:  MOVWF  38
05C1:  CALL   117
05C2:  MOVF   30,W
05C3:  MOVWF  77
05C4:  MOVLW  20
05C5:  ANDWF  30,F
05C6:  MOVLW  00
05C7:  MOVLW  30
05C8:  BTFSS  30.5
05C9:  GOTO   5D7
05CA:  BCF    30.5
05CB:  MOVF   2A,W
05CC:  BTFSS  03.2
05CD:  DECF   30,F
05CE:  MOVF   77,W
05CF:  MOVWF  30
05D0:  MOVLW  2D
05D1:  MOVWF  38
05D2:  CALL   117
05D3:  MOVF   30,W
05D4:  MOVWF  77
05D5:  CLRF   30
05D6:  MOVLW  30
05D7:  ADDWF  77,F
05D8:  MOVF   77,W
05D9:  MOVWF  38
05DA:  CALL   117
05DB:  BCF    03.1
05DC:  MOVF   37,W
05DD:  MOVWF  3B
05DE:  MOVF   36,W
05DF:  MOVWF  3A
05E0:  MOVF   35,W
05E1:  MOVWF  39
05E2:  MOVF   34,W
05E3:  MOVWF  38
05E4:  CLRF   3F
05E5:  CLRF   3E
05E6:  CLRF   3D
05E7:  MOVLW  0A
05E8:  MOVWF  3C
05E9:  CALL   4C7
05EA:  MOVF   7A,W
05EB:  MOVWF  37
05EC:  MOVF   79,W
05ED:  MOVWF  36
05EE:  MOVF   78,W
05EF:  MOVWF  35
05F0:  MOVF   77,W
05F1:  MOVWF  34
05F2:  DECFSZ 32,F
05F3:  GOTO   57C
05F4:  MOVLP  00
05F5:  GOTO   660 (RETURN)
.................... 
.................... #list
.................... 
.................... #device ADC=10
.................... #use delay(internal=4MHz)
*
0026:  MOVLW  20
0027:  MOVWF  05
0028:  MOVLW  07
0029:  MOVWF  04
002A:  MOVF   00,W
002B:  BTFSC  03.2
002C:  GOTO   03B
002D:  MOVLW  01
002E:  MOVWF  78
002F:  CLRF   77
0030:  DECFSZ 77,F
0031:  GOTO   030
0032:  DECFSZ 78,F
0033:  GOTO   02F
0034:  MOVLW  4A
0035:  MOVWF  77
0036:  DECFSZ 77,F
0037:  GOTO   036
0038:  GOTO   039
0039:  DECFSZ 00,F
003A:  GOTO   02D
003B:  RETURN
.................... 
.................... 
.................... 
.................... #fuses INTRC_IO, NOWDT, NOMCLR
.................... 
.................... 
.................... // CONFIGURACIÓN I2C 
.................... #use i2c(MASTER, SDA=PIN_B1, SCL=PIN_B4, FAST=100000)
003C:  MOVLB  04
003D:  BCF    15.7
003E:  MOVLB  00
003F:  BCF    11.3
0040:  MOVF   35,W
0041:  MOVLB  04
0042:  MOVWF  11
0043:  MOVLW  02
0044:  BTFSC  15.7
0045:  GOTO   04D
0046:  MOVLB  00
0047:  BTFSS  11.3
0048:  GOTO   047
0049:  MOVLW  00
004A:  MOVLB  04
004B:  BTFSC  16.6
004C:  MOVLW  01
004D:  MOVWF  78
004E:  MOVLB  00
004F:  RETURN
*
0188:  MOVLB  04
0189:  BCF    15.6
018A:  BSF    16.3
018B:  BTFSC  16.3
018C:  GOTO   18B
018D:  BTFSC  77.0
018E:  BCF    16.5
018F:  BTFSS  77.0
0190:  BSF    16.5
0191:  BSF    16.4
0192:  BTFSC  16.4
0193:  GOTO   192
0194:  MOVF   11,W
0195:  MOVWF  78
0196:  MOVLB  00
0197:  RETURN
.................... 
.................... // dirección del LM75 (A0–A2 a GND)
.................... #define LM75_ADDR 0x90  
.................... 
.................... // CONFIGURACIÓN UART
.................... #use rs232(baud=9600, xmit=PIN_A0, rcv=PIN_A1, bits=8, parity=N, stop=1)
*
0117:  MOVLB  01
0118:  BCF    0C.0
0119:  MOVLB  02
011A:  BCF    0C.0
011B:  MOVLW  08
011C:  MOVWF  78
011D:  GOTO   11E
011E:  NOP
011F:  BSF    78.7
0120:  GOTO   131
0121:  BCF    78.7
0122:  MOVLB  00
0123:  RRF    38,F
0124:  MOVLB  02
0125:  BTFSC  03.0
0126:  BSF    0C.0
0127:  BTFSS  03.0
0128:  BCF    0C.0
0129:  BSF    78.6
012A:  GOTO   131
012B:  BCF    78.6
012C:  DECFSZ 78,F
012D:  GOTO   122
012E:  GOTO   12F
012F:  NOP
0130:  BSF    0C.0
0131:  MOVLW  1B
0132:  MOVWF  04
0133:  DECFSZ 04,F
0134:  GOTO   133
0135:  GOTO   136
0136:  NOP
0137:  BTFSC  78.7
0138:  GOTO   121
0139:  BTFSC  78.6
013A:  GOTO   12B
013B:  MOVLB  00
013C:  RETURN
.................... 
.................... //LCD 
.................... #define I2C_LCD_DIR 0x40
.................... #define LCD_RS  0x01
.................... #define LCD_RW  0x02
.................... #define LCD_EN  0x04
.................... 
.................... void i2c_enviar_byte_LCD(int8 dato);
.................... void lcd_enviar_4bits(int8 nibble, int1 es_texto);
.................... void lcd_comando(int8 comando);
.................... void lcd_texto(char letra);
.................... void lcd_iniciar(void);
.................... void lcd_mostrar_float(float num);
.................... 
.................... // SENSOR LM75 
.................... float leer_temperatura_LM75(void);
.................... 
.................... 
.................... void main() {
*
05F6:  MOVLW  6A
05F7:  MOVLB  01
05F8:  MOVWF  19
05F9:  BSF    0D.4
05FA:  BSF    0D.1
05FB:  MOVLB  04
05FC:  BCF    17.0
05FD:  BCF    17.1
05FE:  BCF    17.3
05FF:  MOVLW  09
0600:  MOVWF  12
0601:  MOVLW  28
0602:  MOVWF  15
0603:  BSF    14.7
0604:  BCF    14.6
0605:  MOVLB  01
0606:  BCF    0C.0
0607:  MOVLB  02
0608:  BSF    0C.0
0609:  MOVLB  00
060A:  CLRF   21
060B:  CLRF   20
060C:  MOVLB  03
060D:  CLRF   0C
060E:  CLRF   0D
060F:  MOVLB  02
0610:  CLRF   12
0611:  CLRF   11
0612:  CLRF   14
0613:  CLRF   13
....................    float temperatura;
.................... 
....................    lcd_iniciar();                        // inicializo LCD
0614:  MOVLB  00
0615:  GOTO   087
....................    lcd_comando(0x80);                    // cursor al inicio
0616:  MOVLW  80
0617:  MOVWF  26
0618:  CALL   077
....................    printf(lcd_texto, "TEMP LM75 I2C");   // mensaje inicial
0619:  MOVLW  03
061A:  MOVLB  03
061B:  MOVWF  11
061C:  MOVLW  00
061D:  MOVWF  12
061E:  MOVLB  00
061F:  CALL   0CD
.................... 
....................    printf("\r\n--- Lectura LM75 ---\r\n");
0620:  MOVLW  0A
0621:  MOVLB  03
0622:  MOVWF  11
0623:  MOVLW  00
0624:  MOVWF  12
0625:  MOVLB  00
0626:  GOTO   13D
.................... 
....................    while(TRUE) {
....................       temperatura = leer_temperatura_LM75();   // leo temperatura del sensor
0627:  GOTO   2F7
0628:  MOVF   7A,W
0629:  MOVWF  25
062A:  MOVF   79,W
062B:  MOVWF  24
062C:  MOVF   78,W
062D:  MOVWF  23
062E:  MOVF   77,W
062F:  MOVWF  22
.................... 
....................       // mostrar en LCD
....................       lcd_comando(0xC0);                // segunda línea
0630:  MOVLW  C0
0631:  MOVWF  26
0632:  CALL   077
....................       printf(lcd_texto, "Temp: ");
0633:  MOVLW  17
0634:  MOVLB  03
0635:  MOVWF  11
0636:  MOVLW  00
0637:  MOVWF  12
0638:  MOVLB  00
0639:  CALL   0CD
....................       lcd_mostrar_float(temperatura);
063A:  MOVF   25,W
063B:  MOVWF  29
063C:  MOVF   24,W
063D:  MOVWF  28
063E:  MOVF   23,W
063F:  MOVWF  27
0640:  MOVF   22,W
0641:  MOVWF  26
0642:  GOTO   424
....................       printf(lcd_texto, " C");
0643:  MOVLW  20
0644:  MOVWF  2E
0645:  CALL   0BA
0646:  MOVLW  43
0647:  MOVWF  2E
0648:  CALL   0BA
.................... 
....................       // mostrar por UART
....................       printf("\r\nTemperatura: %.2f C", temperatura);
0649:  MOVLW  1B
064A:  MOVLB  03
064B:  MOVWF  11
064C:  MOVLW  00
064D:  MOVWF  12
064E:  BCF    03.0
064F:  MOVLW  0F
0650:  MOVLB  00
0651:  MOVWF  26
0652:  GOTO   476
0653:  MOVLW  89
0654:  MOVWF  04
0655:  MOVF   25,W
0656:  MOVWF  29
0657:  MOVF   24,W
0658:  MOVWF  28
0659:  MOVF   23,W
065A:  MOVWF  27
065B:  MOVF   22,W
065C:  MOVWF  26
065D:  MOVLW  02
065E:  MOVWF  2A
065F:  GOTO   514
0660:  MOVLW  20
0661:  MOVWF  38
0662:  CALL   117
0663:  MOVLW  43
0664:  MOVWF  38
0665:  CALL   117
.................... 
....................       delay_ms(1000); // leo cada 1 segundo
0666:  MOVLW  04
0667:  MOVWF  26
0668:  MOVLW  FA
0669:  MOVWF  27
066A:  CALL   026
066B:  DECFSZ 26,F
066C:  GOTO   668
066D:  GOTO   627
....................    }
.................... }
.................... 
066E:  SLEEP
.................... 
.................... // FUNCIONES I2C PARA EL LCD
.................... 
.................... void i2c_enviar_byte_LCD(int8 dato) {
....................    i2c_start();
*
0050:  MOVLB  04
0051:  BSF    16.0
0052:  BTFSC  16.0
0053:  GOTO   052
....................    i2c_write(I2C_LCD_DIR | 0);
0054:  MOVLW  40
0055:  MOVLB  00
0056:  MOVWF  35
0057:  CALL   03C
....................    i2c_write(dato);
0058:  MOVF   34,W
0059:  MOVWF  35
005A:  CALL   03C
....................    i2c_stop();
005B:  MOVLB  04
005C:  BSF    16.2
005D:  BTFSC  16.2
005E:  GOTO   05D
005F:  MOVLB  00
0060:  RETURN
.................... }
.................... 
.................... void lcd_enviar_4bits(int8 nibble, int1 es_texto) {
....................    int8 byte_i2c;
....................    byte_i2c = (nibble << 4);
0061:  SWAPF  30,W
0062:  MOVWF  32
0063:  MOVLW  F0
0064:  ANDWF  32,F
....................    if(es_texto) byte_i2c |= LCD_RS;
0065:  MOVF   31,F
0066:  BTFSS  03.2
0067:  BSF    32.0
.................... 
....................    i2c_enviar_byte_LCD(byte_i2c | LCD_EN);
0068:  MOVF   32,W
0069:  IORLW  04
006A:  MOVWF  33
006B:  MOVWF  34
006C:  CALL   050
....................    delay_us(10);
006D:  MOVLW  03
006E:  MOVWF  77
006F:  DECFSZ 77,F
0070:  GOTO   06F
....................    i2c_enviar_byte_LCD(byte_i2c & ~LCD_EN);
0071:  MOVF   32,W
0072:  ANDLW  FB
0073:  MOVWF  33
0074:  MOVWF  34
0075:  CALL   050
0076:  RETURN
.................... }
.................... 
.................... void lcd_comando(int8 comando) {
....................    lcd_enviar_4bits(comando >> 4, 0);
0077:  SWAPF  26,W
0078:  MOVWF  27
0079:  MOVLW  0F
007A:  ANDWF  27,F
007B:  MOVF   27,W
007C:  MOVWF  30
007D:  CLRF   31
007E:  CALL   061
....................    lcd_enviar_4bits(comando, 0);
007F:  MOVF   26,W
0080:  MOVWF  30
0081:  CLRF   31
0082:  CALL   061
....................    delay_ms(2);
0083:  MOVLW  02
0084:  MOVWF  27
0085:  CALL   026
0086:  RETURN
.................... }
.................... 
.................... void lcd_texto(char letra) {
....................    lcd_enviar_4bits(letra >> 4, 1);
*
00BA:  SWAPF  2E,W
00BB:  MOVWF  2F
00BC:  MOVLW  0F
00BD:  ANDWF  2F,F
00BE:  MOVF   2F,W
00BF:  MOVWF  30
00C0:  MOVLW  01
00C1:  MOVWF  31
00C2:  CALL   061
....................    lcd_enviar_4bits(letra, 1);
00C3:  MOVF   2E,W
00C4:  MOVWF  30
00C5:  MOVLW  01
00C6:  MOVWF  31
00C7:  CALL   061
....................    delay_us(40);
00C8:  MOVLW  0D
00C9:  MOVWF  77
00CA:  DECFSZ 77,F
00CB:  GOTO   0CA
00CC:  RETURN
.................... }
.................... 
.................... void lcd_iniciar(void) {
....................    delay_ms(15);
*
0087:  MOVLW  0F
0088:  MOVWF  27
0089:  CALL   026
....................    lcd_enviar_4bits(0x03, 0);
008A:  MOVLW  03
008B:  MOVWF  30
008C:  CLRF   31
008D:  CALL   061
....................    delay_ms(5);
008E:  MOVLW  05
008F:  MOVWF  27
0090:  CALL   026
....................    lcd_enviar_4bits(0x03, 0);
0091:  MOVLW  03
0092:  MOVWF  30
0093:  CLRF   31
0094:  CALL   061
....................    delay_us(100);
0095:  MOVLW  21
0096:  MOVWF  77
0097:  DECFSZ 77,F
0098:  GOTO   097
....................    lcd_enviar_4bits(0x03, 0);
0099:  MOVLW  03
009A:  MOVWF  30
009B:  CLRF   31
009C:  CALL   061
....................    delay_us(100);
009D:  MOVLW  21
009E:  MOVWF  77
009F:  DECFSZ 77,F
00A0:  GOTO   09F
....................    lcd_enviar_4bits(0x02, 0);
00A1:  MOVLW  02
00A2:  MOVWF  30
00A3:  CLRF   31
00A4:  CALL   061
....................    delay_us(100);
00A5:  MOVLW  21
00A6:  MOVWF  77
00A7:  DECFSZ 77,F
00A8:  GOTO   0A7
.................... 
....................    lcd_comando(0x28);
00A9:  MOVLW  28
00AA:  MOVWF  26
00AB:  CALL   077
....................    lcd_comando(0x0C);
00AC:  MOVLW  0C
00AD:  MOVWF  26
00AE:  CALL   077
....................    lcd_comando(0x06);
00AF:  MOVLW  06
00B0:  MOVWF  26
00B1:  CALL   077
....................    lcd_comando(0x01);
00B2:  MOVLW  01
00B3:  MOVWF  26
00B4:  CALL   077
....................    delay_ms(2);
00B5:  MOVLW  02
00B6:  MOVWF  27
00B7:  CALL   026
00B8:  MOVLP  00
00B9:  GOTO   616 (RETURN)
.................... }
.................... 
.................... // función para mostrar un número flotante en el LCD
.................... void lcd_mostrar_float(float num) {
*
0424:  MOVF   29,W
0425:  MOVWF  2F
0426:  MOVF   28,W
0427:  MOVWF  2E
0428:  MOVF   27,W
0429:  MOVWF  2D
042A:  MOVF   26,W
042B:  MOVWF  2C
042C:  CALL   346
042D:  MOVF   78,W
042E:  MOVWF  2A
042F:  CLRF   2D
0430:  MOVF   2A,W
0431:  MOVWF  2C
0432:  CALL   198
0433:  BSF    03.1
0434:  MOVF   29,W
0435:  MOVWF  2F
0436:  MOVF   28,W
0437:  MOVWF  2E
0438:  MOVF   27,W
0439:  MOVWF  2D
043A:  MOVF   26,W
043B:  MOVWF  2C
043C:  MOVF   7A,W
043D:  MOVWF  33
043E:  MOVF   79,W
043F:  MOVWF  32
0440:  MOVF   78,W
0441:  MOVWF  31
0442:  MOVF   77,W
0443:  MOVWF  30
0444:  CALL   1B5
0445:  MOVF   7A,W
0446:  MOVWF  2F
0447:  MOVF   79,W
0448:  MOVWF  2E
0449:  MOVF   78,W
044A:  MOVWF  2D
044B:  MOVF   77,W
044C:  MOVWF  2C
044D:  MOVF   7A,W
044E:  MOVWF  3B
044F:  MOVF   79,W
0450:  MOVWF  3A
0451:  MOVF   78,W
0452:  MOVWF  39
0453:  MOVF   77,W
0454:  MOVWF  38
0455:  CLRF   3F
0456:  CLRF   3E
0457:  MOVLW  48
0458:  MOVWF  3D
0459:  MOVLW  85
045A:  MOVWF  3C
045B:  CALL   365
045C:  MOVF   7A,W
045D:  MOVWF  2F
045E:  MOVF   79,W
045F:  MOVWF  2E
0460:  MOVF   78,W
0461:  MOVWF  2D
0462:  MOVF   77,W
0463:  MOVWF  2C
0464:  CALL   346
0465:  MOVF   78,W
0466:  MOVWF  2B
....................    int8 entero = (int8)num;
....................    int8 decimales = (int8)((num - entero) * 100);
....................    printf(lcd_texto, "%02u.%02u", entero, decimales);
0467:  MOVF   2A,W
0468:  MOVWF  2C
0469:  MOVLW  01
046A:  MOVWF  2D
046B:  CALL   3EF
046C:  MOVLW  2E
046D:  MOVWF  2E
046E:  CALL   0BA
046F:  MOVF   2B,W
0470:  MOVWF  2C
0471:  MOVLW  01
0472:  MOVWF  2D
0473:  CALL   3EF
0474:  MOVLP  00
0475:  GOTO   643 (RETURN)
.................... }
.................... 
.................... 
.................... // LECTURA DE TEMPERATURA (LM75)
.................... 
.................... float leer_temperatura_LM75(void) {
....................    int8 msb, lsb;
....................    float temperatura;
.................... 
....................    i2c_start();
*
02F7:  MOVLB  04
02F8:  BSF    16.0
02F9:  BTFSC  16.0
02FA:  GOTO   2F9
....................    i2c_write(LM75_ADDR);     // dirección + bit de escritura
02FB:  MOVLW  90
02FC:  MOVLB  00
02FD:  MOVWF  35
02FE:  CALL   03C
....................    i2c_write(0x00);          // registro de temperatura
02FF:  CLRF   35
0300:  CALL   03C
....................    i2c_start();              // repetir start para leer
0301:  MOVLB  04
0302:  BSF    16.1
0303:  BTFSC  16.1
0304:  GOTO   303
....................    i2c_write(LM75_ADDR | 1); // dirección + bit de lectura
0305:  MOVLW  91
0306:  MOVLB  00
0307:  MOVWF  35
0308:  CALL   03C
....................    msb = i2c_read();         // 
0309:  MOVLW  01
030A:  MOVWF  77
030B:  CALL   188
030C:  MOVF   78,W
030D:  MOVWF  26
....................    lsb = i2c_read(0);        //  último byte
030E:  CLRF   77
030F:  CALL   188
0310:  MOVF   78,W
0311:  MOVWF  27
....................    i2c_stop();
0312:  MOVLB  04
0313:  BSF    16.2
0314:  BTFSC  16.2
0315:  GOTO   314
.................... 
....................    // LM75: 9 bits -> cada bit = 0.5°C
....................    temperatura = (float)msb;
0316:  MOVLB  00
0317:  CLRF   2D
0318:  MOVF   26,W
0319:  MOVWF  2C
031A:  CALL   198
031B:  MOVF   7A,W
031C:  MOVWF  2B
031D:  MOVF   79,W
031E:  MOVWF  2A
031F:  MOVF   78,W
0320:  MOVWF  29
0321:  MOVF   77,W
0322:  MOVWF  28
....................    if(lsb & 0x80) temperatura += 0.5;
0323:  BTFSS  27.7
0324:  GOTO   33C
0325:  BCF    03.1
0326:  MOVF   2B,W
0327:  MOVWF  2F
0328:  MOVF   2A,W
0329:  MOVWF  2E
032A:  MOVF   29,W
032B:  MOVWF  2D
032C:  MOVF   28,W
032D:  MOVWF  2C
032E:  CLRF   33
032F:  CLRF   32
0330:  CLRF   31
0331:  MOVLW  7E
0332:  MOVWF  30
0333:  CALL   1B5
0334:  MOVF   7A,W
0335:  MOVWF  2B
0336:  MOVF   79,W
0337:  MOVWF  2A
0338:  MOVF   78,W
0339:  MOVWF  29
033A:  MOVF   77,W
033B:  MOVWF  28
.................... 
....................    return temperatura;
033C:  MOVF   28,W
033D:  MOVWF  77
033E:  MOVF   29,W
033F:  MOVWF  78
0340:  MOVF   2A,W
0341:  MOVWF  79
0342:  MOVF   2B,W
0343:  MOVWF  7A
0344:  MOVLP  00
0345:  GOTO   628 (RETURN)
.................... }
.................... 

Configuration Fuses:
   Word  1: 3F84   INTRC_IO NOWDT PUT NOMCLR NOPROTECT NOCPD BROWNOUT NOCLKOUT IESO FCMEN
   Word  2: 1EFF   NOWRT PLL_SW STVREN BORV19 NODEBUG NOLVP
