CCS PCM C Compiler, Version 5.093, 4770               20-ago.-25 17:20

               Filename:   C:\Users\MPF\Desktop\Git\(Timer)Ejercicio2_main.lst

               ROM used:   80 words (2%)
                           Largest free fragment is 2048
               RAM used:   8 (2%) at main() level
                           19 (5%) worst case
               Stack used: 1 locations (0 in main + 1 for interrupts)
               Stack size: 16

0000:  MOVLP  00
0001:  GOTO   044
0002:  NOP
*
0004:  CLRF   03
0005:  MOVLP  00
0006:  MOVLB  00
0007:  MOVF   77,W
0008:  MOVWF  20
0009:  MOVF   78,W
000A:  MOVWF  21
000B:  MOVF   79,W
000C:  MOVWF  22
000D:  MOVF   7A,W
000E:  MOVWF  23
000F:  BTFSS  0B.5
0010:  GOTO   013
0011:  BTFSC  0B.2
0012:  GOTO   01C
0013:  MOVF   20,W
0014:  MOVWF  77
0015:  MOVF   21,W
0016:  MOVWF  78
0017:  MOVF   22,W
0018:  MOVWF  79
0019:  MOVF   23,W
001A:  MOVWF  7A
001B:  RETFIE
001C:  MOVLP  00
001D:  GOTO   01E
.................... #include <(Timer)Ejercicio2_main.h>
.................... #include <16F1827.h>
.................... //////////// Standard Header file for the PIC16F1827 device ////////////////
.................... ///////////////////////////////////////////////////////////////////////////
.................... ////        (C) Copyright 1996, 2014 Custom Computer Services          ////
.................... //// This source code may only be used by licensed users of the CCS C  ////
.................... //// compiler.  This source code may only be distributed to other      ////
.................... //// licensed users of the CCS C compiler.  No other use, reproduction ////
.................... //// or distribution is permitted without written permission.          ////
.................... //// Derivative programs created using this software in object code    ////
.................... //// form are not restricted in any way.                               ////
.................... ///////////////////////////////////////////////////////////////////////////
.................... #device PIC16F1827
.................... 
.................... #list
.................... 
.................... #device ADC=10
.................... #use delay(clock=4000000)
.................... 
.................... 
.................... 
.................... #fuses INTRC_IO   // Utilizo oscilador interno con pines RA6 y RA7 como GPIO
.................... #fuses NOMCLR     // Desactivo el MCLR
.................... #fuses NOWDT      // Desactivo el watchdog
.................... 
.................... 
.................... /*****************************************************************************
....................  * Funciones de Inicializacion de Perifericos
....................  ****************************************************************************/
.................... 
.................... void InitGPIO(void);
.................... 
.................... void InitTimer0(void);
.................... 
.................... /*****************************************************************************
....................  * Interrupcion
....................  ****************************************************************************/
.................... 
.................... #INT_TIMER0
.................... void TIMER0_ISR() {
....................    output_toggle(PIN_B0); // Vaya invirtiendo su estado
001E:  MOVLB  01
001F:  BCF    0D.0
0020:  MOVLW  01
0021:  MOVLB  02
0022:  XORWF  0D,F
....................    set_timer0(100);   // Reinicio el timer 0
0023:  MOVLW  64
0024:  MOVLB  00
0025:  MOVWF  15
0026:  BCF    0B.2
0027:  MOVLP  00
0028:  GOTO   013
.................... }
.................... 
.................... /*****************************************************************************
....................  * Main
....................  ****************************************************************************/
.................... 
.................... void main(void) {
*
0044:  MOVLB  03
0045:  CLRF   0C
0046:  CLRF   0D
0047:  MOVLB  02
0048:  CLRF   12
0049:  CLRF   11
004A:  CLRF   14
004B:  CLRF   13
....................    InitGPIO();    // Inicializo el PORTA y PORTB
004C:  MOVLB  00
004D:  GOTO   029
....................    InitTimer0();  // Inicializo el Timer1
004E:  GOTO   037
....................    while (TRUE) {
004F:  GOTO   04F
....................    
....................    }
.................... }
.................... 
0050:  SLEEP
.................... /*****************************************************************************
....................  * Implementacion de funciones
....................  ****************************************************************************/
.................... 
.................... void InitGPIO(void){
....................     set_tris_b(0b11111110); // RB0 como SALIDA
*
0029:  MOVLW  FE
002A:  MOVLB  01
002B:  MOVWF  0D
....................     port_b_pullups(TRUE);  // Habilito pull ups del PORTB
002C:  MOVLW  01
002D:  MOVLB  04
002E:  MOVWF  0D
002F:  MOVLB  01
0030:  BCF    15.7
....................     output_low(PIN_B0);    // Por defecto salida en estado bajo
0031:  BCF    0D.0
0032:  MOVLB  02
0033:  BCF    0D.0
0034:  MOVLP  00
0035:  MOVLB  00
0036:  GOTO   04E (RETURN)
.................... }
.................... 
.................... void InitTimer0(void){
....................     setup_timer_0(RTCC_INTERNAL | RTCC_8_BIT | RTCC_DIV_8); // Timer interno de 8 bit con preescaler de 1:8
0037:  MOVLB  01
0038:  MOVF   15,W
0039:  ANDLW  C0
003A:  IORLW  02
003B:  MOVWF  15
....................     set_timer0(100); // Recarga el timer0 
003C:  MOVLW  64
003D:  MOVLB  00
003E:  MOVWF  15
....................     enable_interrupts(INT_TIMER0);    // Desactivo Interrupcion timer1
003F:  BSF    0B.5
....................     enable_interrupts(GLOBAL);        // Desactivo Interrupciones globales
0040:  MOVLW  C0
0041:  IORWF  0B,F
0042:  MOVLP  00
0043:  GOTO   04F (RETURN)
.................... }
.................... 
.................... 
.................... 

Configuration Fuses:
   Word  1: 3F84   INTRC_IO NOWDT PUT NOMCLR NOPROTECT NOCPD BROWNOUT NOCLKOUT IESO FCMEN
   Word  2: 1FFF   NOWRT PLL STVREN BORV19 NODEBUG NOLVP
