CCS PCM C Compiler, Version 5.093, 4770               19-sept-25 20:41

               Filename:   C:\Users\emmif\source\Electronica Digital 2\Electr-nica-Digital-2\Guia 2\Punto 5\Punto5.lst

               ROM used:   931 words (23%)
                           Largest free fragment is 2048
               RAM used:   28 (7%) at main() level
                           55 (14%) worst case
               Stack used: 6 locations (5 in main + 1 for interrupts)
               Stack size: 16

0000:  MOVLP  00
0001:  GOTO   37E
0002:  NOP
*
0004:  CLRF   03
0005:  MOVLP  00
0006:  MOVLB  00
0007:  MOVF   77,W
0008:  MOVWF  20
0009:  MOVF   78,W
000A:  MOVWF  21
000B:  MOVF   79,W
000C:  MOVWF  22
000D:  MOVF   7A,W
000E:  MOVWF  23
000F:  MOVLB  03
0010:  MOVF   11,W
0011:  MOVLB  00
0012:  MOVWF  24
0013:  MOVLB  03
0014:  MOVF   12,W
0015:  MOVLB  00
0016:  MOVWF  25
0017:  MOVLB  03
0018:  MOVF   13,W
0019:  MOVLB  00
001A:  MOVWF  26
001B:  MOVLB  03
001C:  MOVF   14,W
001D:  MOVLB  00
001E:  MOVWF  27
001F:  BTFSS  0B.5
0020:  GOTO   023
0021:  BTFSC  0B.2
0022:  GOTO   03C
0023:  MOVF   20,W
0024:  MOVWF  77
0025:  MOVF   21,W
0026:  MOVWF  78
0027:  MOVF   22,W
0028:  MOVWF  79
0029:  MOVF   23,W
002A:  MOVWF  7A
002B:  MOVF   24,W
002C:  MOVLB  03
002D:  MOVWF  11
002E:  MOVLB  00
002F:  MOVF   25,W
0030:  MOVLB  03
0031:  MOVWF  12
0032:  MOVLB  00
0033:  MOVF   26,W
0034:  MOVLB  03
0035:  MOVWF  13
0036:  MOVLB  00
0037:  MOVF   27,W
0038:  MOVLB  03
0039:  MOVWF  14
003A:  RETFIE
003B:  MOVLB  00
003C:  MOVLP  00
003D:  GOTO   04B
.................... #include <Punto5.h>
.................... #include <16F1827.h>
.................... //////////// Standard Header file for the PIC16F1827 device ////////////////
.................... ///////////////////////////////////////////////////////////////////////////
.................... ////        (C) Copyright 1996, 2014 Custom Computer Services          ////
.................... //// This source code may only be used by licensed users of the CCS C  ////
.................... //// compiler.  This source code may only be distributed to other      ////
.................... //// licensed users of the CCS C compiler.  No other use, reproduction ////
.................... //// or distribution is permitted without written permission.          ////
.................... //// Derivative programs created using this software in object code    ////
.................... //// form are not restricted in any way.                               ////
.................... ///////////////////////////////////////////////////////////////////////////
.................... #device PIC16F1827
*
0003:  DATA 0C,00
*
003E:  BRW
003F:  RETLW  31
0040:  RETLW  32
0041:  RETLW  33
0042:  RETLW  34
0043:  RETLW  35
0044:  RETLW  36
0045:  RETLW  37
0046:  RETLW  38
0047:  RETLW  39
0048:  RETLW  2A
0049:  RETLW  30
004A:  RETLW  23
*
0058:  DATA 0C,10
0059:  DATA 49,37
005A:  DATA 67,39
005B:  DATA E5,39
005C:  DATA 65,10
005D:  DATA 63,36
005E:  DATA 61,3B
005F:  DATA 65,00
0060:  DATA 0C,00
0061:  RETLW  43
0062:  RETLW  6F
0063:  RETLW  6E
0064:  RETLW  74
0065:  RETLW  72
0066:  RETLW  61
0067:  RETLW  73
0068:  RETLW  65
0069:  RETLW  F1
006A:  RETLW  61
006B:  RETLW  20
006C:  RETLW  49
006D:  RETLW  6E
006E:  RETLW  63
006F:  RETLW  6F
0070:  RETLW  72
0071:  RETLW  72
0072:  RETLW  65
0073:  RETLW  63
0074:  RETLW  74
0075:  RETLW  61
0076:  RETLW  00
0077:  RETLW  43
0078:  RETLW  6F
0079:  RETLW  6E
007A:  RETLW  74
007B:  RETLW  72
007C:  RETLW  61
007D:  RETLW  73
007E:  RETLW  65
007F:  RETLW  F1
0080:  RETLW  61
0081:  RETLW  20
0082:  RETLW  43
0083:  RETLW  6F
0084:  RETLW  72
0085:  RETLW  72
0086:  RETLW  65
0087:  RETLW  63
0088:  RETLW  74
0089:  RETLW  61
008A:  RETLW  00
*
0229:  MOVF   0B,W
022A:  BCF    0B.7
022B:  MOVLB  03
022C:  BSF    15.7
022D:  BSF    15.0
022E:  NOP
022F:  NOP
0230:  BTFSC  09.7
0231:  BSF    0B.7
0232:  MOVF   13,W
0233:  ANDLW  7F
0234:  BTFSC  03.2
0235:  GOTO   271
0236:  MOVLB  00
0237:  MOVWF  3A
0238:  MOVLB  03
0239:  MOVF   11,W
023A:  MOVLB  00
023B:  MOVWF  3B
023C:  MOVLB  03
023D:  MOVF   12,W
023E:  MOVLB  00
023F:  MOVWF  3C
0240:  MOVF   3A,W
0241:  MOVWF  3D
0242:  CALL   1FD
0243:  MOVF   3B,W
0244:  MOVLB  03
0245:  MOVWF  11
0246:  MOVLB  00
0247:  MOVF   3C,W
0248:  MOVLB  03
0249:  MOVWF  12
024A:  MOVF   0B,W
024B:  BCF    0B.7
024C:  BSF    15.7
024D:  BSF    15.0
024E:  NOP
024F:  NOP
0250:  BTFSC  09.7
0251:  BSF    0B.7
0252:  RLF    13,W
0253:  RLF    14,W
0254:  ANDLW  7F
0255:  BTFSC  03.2
0256:  GOTO   271
0257:  MOVLB  00
0258:  MOVWF  3A
0259:  MOVLB  03
025A:  MOVF   11,W
025B:  MOVLB  00
025C:  MOVWF  3B
025D:  MOVLB  03
025E:  MOVF   12,W
025F:  MOVLB  00
0260:  MOVWF  3C
0261:  MOVF   3A,W
0262:  MOVWF  3D
0263:  CALL   1FD
0264:  MOVF   3B,W
0265:  MOVLB  03
0266:  MOVWF  11
0267:  MOVLB  00
0268:  MOVF   3C,W
0269:  MOVLB  03
026A:  MOVWF  12
026B:  INCF   11,F
026C:  BTFSC  03.2
026D:  INCF   12,F
026E:  MOVLB  00
026F:  GOTO   229
0270:  MOVLB  03
0271:  MOVLB  00
0272:  RETURN
0273:  MOVF   00,F
0274:  BTFSC  03.2
0275:  GOTO   283
0276:  MOVF   05,W
0277:  MOVWF  39
0278:  MOVF   04,W
0279:  MOVWF  38
027A:  MOVF   00,W
027B:  MOVWF  3D
027C:  CALL   1FD
027D:  MOVF   39,W
027E:  MOVWF  05
027F:  MOVF   38,W
0280:  MOVWF  04
0281:  ADDFSR 01,FSR0
0282:  GOTO   273
0283:  RETURN
*
02E5:  CLRF   77
02E6:  CLRF   78
02E7:  MOVF   3A,W
02E8:  BCF    03.0
02E9:  BTFSC  3B.0
02EA:  ADDWF  77,F
02EB:  RRF    77,F
02EC:  RRF    78,F
02ED:  BTFSC  3B.1
02EE:  ADDWF  77,F
02EF:  RRF    77,F
02F0:  RRF    78,F
02F1:  BTFSC  3B.2
02F2:  ADDWF  77,F
02F3:  RRF    77,F
02F4:  RRF    78,F
02F5:  BTFSC  3B.3
02F6:  ADDWF  77,F
02F7:  RRF    77,F
02F8:  RRF    78,F
02F9:  BTFSC  3B.4
02FA:  ADDWF  77,F
02FB:  RRF    77,F
02FC:  RRF    78,F
02FD:  BTFSC  3B.5
02FE:  ADDWF  77,F
02FF:  RRF    77,F
0300:  RRF    78,F
0301:  BTFSC  3B.6
0302:  ADDWF  77,F
0303:  RRF    77,F
0304:  RRF    78,F
0305:  BTFSC  3B.7
0306:  ADDWF  77,F
0307:  RRF    77,F
0308:  RRF    78,F
.................... 
.................... #list
.................... 
.................... #device ADC=10
.................... #use delay(internal=4MHz)
*
00B6:  MOVLW  20
00B7:  MOVWF  05
00B8:  MOVLW  1E
00B9:  MOVWF  04
00BA:  MOVF   00,W
00BB:  BTFSC  03.2
00BC:  GOTO   0CB
00BD:  MOVLW  01
00BE:  MOVWF  78
00BF:  CLRF   77
00C0:  DECFSZ 77,F
00C1:  GOTO   0C0
00C2:  DECFSZ 78,F
00C3:  GOTO   0BF
00C4:  MOVLW  4A
00C5:  MOVWF  77
00C6:  DECFSZ 77,F
00C7:  GOTO   0C6
00C8:  GOTO   0C9
00C9:  DECFSZ 00,F
00CA:  GOTO   0BD
00CB:  RETURN
.................... 
.................... 
.................... 
.................... #fuses INTRC_IO   // Oscilador interno con pines RA6 y RA7 como GPIO
.................... #fuses NOMCLR     // Desactivo el MCLR
.................... #fuses NOWDT      // Desactivo el watchdog
.................... 
.................... /*****************************************************************************
....................  * LCD
....................  ****************************************************************************/
.................... 
.................... #define LCD_ENABLE_PIN  PIN_A1
.................... #define LCD_RS_PIN      PIN_A2
.................... #define LCD_RW_PIN      PIN_A3 // CONECTADO A GND SI NO LO USAMOS
.................... #define LCD_DATA4       PIN_A4
.................... #define LCD_DATA5       PIN_A5
.................... #define LCD_DATA6       PIN_A6
.................... #define LCD_DATA7       PIN_A7
.................... 
.................... #include <lcd.c>
.................... ///////////////////////////////////////////////////////////////////////////////
.................... ////                             LCD.C                                     ////
.................... ////                 Driver for common LCD modules                         ////
.................... ////                                                                       ////
.................... ////  lcd_init()   Must be called before any other function.               ////
.................... ////                                                                       ////
.................... ////  lcd_putc(c)  Will display c on the next position of the LCD.         ////
.................... ////                 \a  Set cursor position to upper left                 ////
.................... ////                 \f  Clear display, set cursor to upper left           ////
.................... ////                 \n  Go to start of second line                        ////
.................... ////                 \b  Move back one position                            ////
.................... ////              If LCD_EXTENDED_NEWLINE is defined, the \n character     ////
.................... ////              will erase all remanining characters on the current      ////
.................... ////              line, and move the cursor to the beginning of the next   ////
.................... ////              line.                                                    ////
.................... ////              If LCD_EXTENDED_NEWLINE is defined, the \r character     ////
.................... ////              will move the cursor to the start of the current         ////
.................... ////              line.                                                    ////
.................... ////                                                                       ////
.................... ////  lcd_gotoxy(x,y) Set write position on LCD (upper left is 1,1)        ////
.................... ////                                                                       ////
.................... ////  lcd_getc(x,y)   Returns character at position x,y on LCD             ////
.................... ////                                                                       ////
.................... ////  lcd_cursor_on(int1 on)   Turn the cursor on (on=TRUE) or off         ////
.................... ////              (on=FALSE).                                              ////
.................... ////                                                                       ////
.................... ////  lcd_set_cgram_char(w, *p)   Write a custom character to the CGRAM.   ////
.................... ////                                                                       ////
.................... ////                                                                       ////
.................... ////  CONFIGURATION                                                        ////
.................... ////  The LCD can be configured in one of two ways: a.) port access or     ////
.................... ////  b.) pin access.  Port access requires the entire 7 bit interface     ////
.................... ////  connected to one GPIO port, and the data bits (D4:D7 of the LCD)     ////
.................... ////  connected to sequential pins on the GPIO.  Pin access                ////
.................... ////  has no requirements, all 7 bits of the control interface can         ////
.................... ////  can be connected to any GPIO using several ports.                    ////
.................... ////                                                                       ////
.................... ////  To use port access, #define LCD_DATA_PORT to the SFR location of     ////
.................... ////  of the GPIO port that holds the interface, -AND- edit LCD_PIN_MAP    ////
.................... ////  of this file to configure the pin order.  If you are using a         ////
.................... ////  baseline PIC (PCB), then LCD_OUTPUT_MAP and LCD_INPUT_MAP also must  ////
.................... ////  be defined.                                                          ////
.................... ////                                                                       ////
.................... ////  Example of port access:                                              ////
.................... ////     #define LCD_DATA_PORT getenv("SFR:PORTD")                         ////
.................... ////                                                                       ////
.................... ////  To use pin access, the following pins must be defined:               ////
.................... ////     LCD_ENABLE_PIN                                                    ////
.................... ////     LCD_RS_PIN                                                        ////
.................... ////     LCD_RW_PIN                                                        ////
.................... ////     LCD_DATA4                                                         ////
.................... ////     LCD_DATA5                                                         ////
.................... ////     LCD_DATA6                                                         ////
.................... ////     LCD_DATA7                                                         ////
.................... ////                                                                       ////
.................... ////  Example of pin access:                                               ////
.................... ////     #define LCD_ENABLE_PIN  PIN_E0                                    ////
.................... ////     #define LCD_RS_PIN      PIN_E1                                    ////
.................... ////     #define LCD_RW_PIN      PIN_E2                                    ////
.................... ////     #define LCD_DATA4       PIN_D4                                    ////
.................... ////     #define LCD_DATA5       PIN_D5                                    ////
.................... ////     #define LCD_DATA6       PIN_D6                                    ////
.................... ////     #define LCD_DATA7       PIN_D7                                    ////
.................... ////                                                                       ////
.................... ///////////////////////////////////////////////////////////////////////////////
.................... ////        (C) Copyright 1996,2010 Custom Computer Services           ////
.................... //// This source code may only be used by licensed users of the CCS C  ////
.................... //// compiler.  This source code may only be distributed to other      ////
.................... //// licensed users of the CCS C compiler.  No other use, reproduction ////
.................... //// or distribution is permitted without written permission.          ////
.................... //// Derivative programs created using this software in object code    ////
.................... //// form are not restricted in any way.                               ////
.................... ///////////////////////////////////////////////////////////////////////////
.................... 
.................... #ifndef __LCD_C__
.................... #define __LCD_C__
.................... 
.................... // define the pinout.
.................... // only required if port access is being used.
.................... typedef struct  
.................... {                            // This structure is overlayed
....................    int1 enable;           // on to an I/O port to gain
....................    int1 rs;               // access to the LCD pins.
....................    int1 rw;               // The bits are allocated from
....................    int1 unused;           // low order up.  ENABLE will
....................    unsigned int     data : 4;         // be LSB pin of that port.
....................   #if defined(__PCD__)       // The port used will be LCD_DATA_PORT.
....................    unsigned int    reserved: 8;
....................   #endif
.................... } LCD_PIN_MAP;
.................... 
.................... // this is to improve compatability with previous LCD drivers that accepted
.................... // a define labeled 'use_portb_lcd' that configured the LCD onto port B.
.................... #if ((defined(use_portb_lcd)) && (use_portb_lcd==TRUE))
....................  #define LCD_DATA_PORT getenv("SFR:PORTB")
.................... #endif
.................... 
.................... #if defined(__PCB__)
....................    // these definitions only need to be modified for baseline PICs.
....................    // all other PICs use LCD_PIN_MAP or individual LCD_xxx pin definitions.
.................... /*                                    EN, RS,   RW,   UNUSED,  DATA  */
....................  const LCD_PIN_MAP LCD_OUTPUT_MAP =  {0,  0,    0,    0,       0};
....................  const LCD_PIN_MAP LCD_INPUT_MAP =   {0,  0,    0,    0,       0xF};
.................... #endif
.................... 
.................... ////////////////////// END CONFIGURATION ///////////////////////////////////
.................... 
.................... #ifndef LCD_ENABLE_PIN
....................    #define lcd_output_enable(x) lcdlat.enable=x
....................    #define lcd_enable_tris()   lcdtris.enable=0
.................... #else
....................    #define lcd_output_enable(x) output_bit(LCD_ENABLE_PIN, x)
....................    #define lcd_enable_tris()  output_drive(LCD_ENABLE_PIN)
.................... #endif
.................... 
.................... #ifndef LCD_RS_PIN
....................    #define lcd_output_rs(x) lcdlat.rs=x
....................    #define lcd_rs_tris()   lcdtris.rs=0
.................... #else
....................    #define lcd_output_rs(x) output_bit(LCD_RS_PIN, x)
....................    #define lcd_rs_tris()  output_drive(LCD_RS_PIN)
.................... #endif
.................... 
.................... #ifndef LCD_RW_PIN
....................    #define lcd_output_rw(x) lcdlat.rw=x
....................    #define lcd_rw_tris()   lcdtris.rw=0
.................... #else
....................    #define lcd_output_rw(x) output_bit(LCD_RW_PIN, x)
....................    #define lcd_rw_tris()  output_drive(LCD_RW_PIN)
.................... #endif
.................... 
.................... // original version of this library incorrectly labeled LCD_DATA0 as LCD_DATA4,
.................... // LCD_DATA1 as LCD_DATA5, and so on.  this block of code makes the driver
.................... // compatible with any code written for the original library
.................... #if (defined(LCD_DATA0) && defined(LCD_DATA1) && defined(LCD_DATA2) && defined(LCD_DATA3) && !defined(LCD_DATA4) && !defined(LCD_DATA5) && !defined(LCD_DATA6) && !defined(LCD_DATA7))
....................    #define  LCD_DATA4    LCD_DATA0
....................    #define  LCD_DATA5    LCD_DATA1
....................    #define  LCD_DATA6    LCD_DATA2
....................    #define  LCD_DATA7    LCD_DATA3
.................... #endif
.................... 
.................... #ifndef LCD_DATA4
.................... #ifndef LCD_DATA_PORT
....................    #if defined(__PCB__)
....................       #define LCD_DATA_PORT      0x06     //portb
....................       #define set_tris_lcd(x)   set_tris_b(x)
....................    #else
....................      #if defined(PIN_D0)
....................       #define LCD_DATA_PORT      getenv("SFR:PORTD")     //portd
....................      #else
....................       #define LCD_DATA_PORT      getenv("SFR:PORTB")     //portb
....................      #endif
....................    #endif   
.................... #endif
.................... 
.................... #if defined(__PCB__)
....................    LCD_PIN_MAP lcd, lcdlat;
....................    #byte lcd = LCD_DATA_PORT
....................    #byte lcdlat = LCD_DATA_PORT
.................... #elif defined(__PCM__)
....................    LCD_PIN_MAP lcd, lcdlat, lcdtris;
....................    #byte lcd = LCD_DATA_PORT
....................    #byte lcdlat = LCD_DATA_PORT
....................    #byte lcdtris = LCD_DATA_PORT+0x80
.................... #elif defined(__PCH__)
....................    LCD_PIN_MAP lcd, lcdlat, lcdtris;
....................    #byte lcd = LCD_DATA_PORT
....................    #byte lcdlat = LCD_DATA_PORT+9
....................    #byte lcdtris = LCD_DATA_PORT+0x12
.................... #elif defined(__PCD__)
....................    LCD_PIN_MAP lcd, lcdlat, lcdtris;
....................    #word lcd = LCD_DATA_PORT
....................    #word lcdlat = LCD_DATA_PORT+2
....................    #word lcdtris = LCD_DATA_PORT-0x02
.................... #endif
.................... #endif   //LCD_DATA4 not defined
.................... 
.................... #ifndef LCD_TYPE
....................    #define LCD_TYPE 2           // 0=5x7, 1=5x10, 2=2 lines
.................... #endif
.................... 
.................... #ifndef LCD_LINE_TWO
....................    #define LCD_LINE_TWO 0x40    // LCD RAM address for the second line
.................... #endif
.................... 
.................... #ifndef LCD_LINE_LENGTH
....................    #define LCD_LINE_LENGTH 20
.................... #endif
.................... 
.................... unsigned int8 lcd_read_nibble(void);
.................... 
.................... unsigned int8 lcd_read_byte(void)
.................... {
....................    unsigned int8 low,high;
.................... 
....................  #if defined(__PCB__)
....................    set_tris_lcd(LCD_INPUT_MAP);
....................  #else
....................   #if (defined(LCD_DATA4) && defined(LCD_DATA5) && defined(LCD_DATA6) && defined(LCD_DATA7))
....................    output_float(LCD_DATA4);
*
013C:  BSF    0C.4
....................    output_float(LCD_DATA5);
013D:  BSF    0C.5
....................    output_float(LCD_DATA6);
013E:  BSF    0C.6
....................    output_float(LCD_DATA7);
013F:  BSF    0C.7
....................   #else
....................    lcdtris.data = 0xF;
....................   #endif
....................  #endif
....................         
....................    lcd_output_rw(1);
0140:  MOVLB  02
0141:  BSF    0C.3
0142:  MOVLB  01
0143:  BCF    0C.3
....................    delay_cycles(1);
0144:  NOP
....................    lcd_output_enable(1);
0145:  MOVLB  02
0146:  BSF    0C.1
0147:  MOVLB  01
0148:  BCF    0C.1
....................    delay_cycles(1);
0149:  NOP
....................    high = lcd_read_nibble();
014A:  MOVLB  00
014B:  CALL   103
014C:  MOVF   78,W
014D:  MOVWF  45
....................       
....................    lcd_output_enable(0);
014E:  MOVLB  02
014F:  BCF    0C.1
0150:  MOVLB  01
0151:  BCF    0C.1
....................    delay_cycles(1);
0152:  NOP
....................    lcd_output_enable(1);
0153:  MOVLB  02
0154:  BSF    0C.1
0155:  MOVLB  01
0156:  BCF    0C.1
....................    delay_us(1);
0157:  NOP
....................    low = lcd_read_nibble();
0158:  MOVLB  00
0159:  CALL   103
015A:  MOVF   78,W
015B:  MOVWF  44
....................       
....................    lcd_output_enable(0);
015C:  MOVLB  02
015D:  BCF    0C.1
015E:  MOVLB  01
015F:  BCF    0C.1
.................... 
....................  #if defined(__PCB__)
....................    set_tris_lcd(LCD_OUTPUT_MAP);
....................  #else
....................   #if (defined(LCD_DATA4) && defined(LCD_DATA5) && defined(LCD_DATA6) && defined(LCD_DATA7))
....................    output_drive(LCD_DATA4);
0160:  BCF    0C.4
....................    output_drive(LCD_DATA5);
0161:  BCF    0C.5
....................    output_drive(LCD_DATA6);
0162:  BCF    0C.6
....................    output_drive(LCD_DATA7);
0163:  BCF    0C.7
....................   #else
....................    lcdtris.data = 0x0;
....................   #endif
....................  #endif
.................... 
....................    return( (high<<4) | low);
0164:  MOVLB  00
0165:  SWAPF  45,W
0166:  MOVWF  77
0167:  MOVLW  F0
0168:  ANDWF  77,F
0169:  MOVF   77,W
016A:  IORWF  44,W
016B:  MOVWF  78
.................... }
.................... 
.................... unsigned int8 lcd_read_nibble(void)
.................... {
....................   #if (defined(LCD_DATA4) && defined(LCD_DATA5) && defined(LCD_DATA6) && defined(LCD_DATA7))
*
0103:  CLRF   46
....................    unsigned int8 n = 0x00;
.................... 
....................    /* Read the data port */
....................    n |= input(LCD_DATA4);
0104:  MOVLB  01
0105:  BSF    0C.4
0106:  MOVLW  00
0107:  MOVLB  00
0108:  BTFSC  0C.4
0109:  MOVLW  01
010A:  IORWF  46,F
....................    n |= input(LCD_DATA5) << 1;
010B:  MOVLB  01
010C:  BSF    0C.5
010D:  MOVLW  00
010E:  MOVLB  00
010F:  BTFSC  0C.5
0110:  MOVLW  01
0111:  MOVWF  77
0112:  BCF    03.0
0113:  RLF    77,F
0114:  MOVF   77,W
0115:  IORWF  46,F
....................    n |= input(LCD_DATA6) << 2;
0116:  MOVLB  01
0117:  BSF    0C.6
0118:  MOVLW  00
0119:  MOVLB  00
011A:  BTFSC  0C.6
011B:  MOVLW  01
011C:  MOVWF  77
011D:  RLF    77,F
011E:  RLF    77,F
011F:  MOVLW  FC
0120:  ANDWF  77,F
0121:  MOVF   77,W
0122:  IORWF  46,F
....................    n |= input(LCD_DATA7) << 3;
0123:  MOVLB  01
0124:  BSF    0C.7
0125:  MOVLW  00
0126:  MOVLB  00
0127:  BTFSC  0C.7
0128:  MOVLW  01
0129:  MOVWF  77
012A:  RLF    77,F
012B:  RLF    77,F
012C:  RLF    77,F
012D:  MOVLW  F8
012E:  ANDWF  77,F
012F:  MOVF   77,W
0130:  IORWF  46,F
....................    
....................    return(n);
0131:  MOVF   46,W
0132:  MOVWF  78
....................   #else
0133:  RETURN
....................    return(lcd.data);
....................   #endif
.................... }
.................... 
.................... void lcd_send_nibble(unsigned int8 n)
.................... {
....................   #if (defined(LCD_DATA4) && defined(LCD_DATA5) && defined(LCD_DATA6) && defined(LCD_DATA7))
....................    /* Write to the data port */
....................    output_bit(LCD_DATA4, bit_test(n, 0));
*
00CC:  BTFSC  45.0
00CD:  GOTO   0D2
00CE:  MOVLB  02
00CF:  BCF    0C.4
00D0:  GOTO   0D4
00D1:  MOVLB  00
00D2:  MOVLB  02
00D3:  BSF    0C.4
00D4:  MOVLB  01
00D5:  BCF    0C.4
....................    output_bit(LCD_DATA5, bit_test(n, 1));
00D6:  MOVLB  00
00D7:  BTFSC  45.1
00D8:  GOTO   0DD
00D9:  MOVLB  02
00DA:  BCF    0C.5
00DB:  GOTO   0DF
00DC:  MOVLB  00
00DD:  MOVLB  02
00DE:  BSF    0C.5
00DF:  MOVLB  01
00E0:  BCF    0C.5
....................    output_bit(LCD_DATA6, bit_test(n, 2));
00E1:  MOVLB  00
00E2:  BTFSC  45.2
00E3:  GOTO   0E8
00E4:  MOVLB  02
00E5:  BCF    0C.6
00E6:  GOTO   0EA
00E7:  MOVLB  00
00E8:  MOVLB  02
00E9:  BSF    0C.6
00EA:  MOVLB  01
00EB:  BCF    0C.6
....................    output_bit(LCD_DATA7, bit_test(n, 3));
00EC:  MOVLB  00
00ED:  BTFSC  45.3
00EE:  GOTO   0F3
00EF:  MOVLB  02
00F0:  BCF    0C.7
00F1:  GOTO   0F5
00F2:  MOVLB  00
00F3:  MOVLB  02
00F4:  BSF    0C.7
00F5:  MOVLB  01
00F6:  BCF    0C.7
....................   #else      
....................    lcdlat.data = n;
....................   #endif
....................       
....................    delay_cycles(1);
00F7:  NOP
....................    lcd_output_enable(1);
00F8:  MOVLB  02
00F9:  BSF    0C.1
00FA:  MOVLB  01
00FB:  BCF    0C.1
....................    delay_us(2);
00FC:  GOTO   0FD
....................    lcd_output_enable(0);
00FD:  MOVLB  02
00FE:  BCF    0C.1
00FF:  MOVLB  01
0100:  BCF    0C.1
0101:  MOVLB  00
0102:  RETURN
.................... }
.................... 
.................... void lcd_send_byte(unsigned int8 address, unsigned int8 n)
.................... {
....................   #if defined(__PCB__)
....................    set_tris_lcd(LCD_OUTPUT_MAP);
....................   #else
....................    lcd_enable_tris();
*
0134:  MOVLB  01
0135:  BCF    0C.1
....................    lcd_rs_tris();
0136:  BCF    0C.2
....................    lcd_rw_tris();
0137:  BCF    0C.3
....................   #endif
.................... 
....................    lcd_output_rs(0);
0138:  MOVLB  02
0139:  BCF    0C.2
013A:  MOVLB  01
013B:  BCF    0C.2
....................    while ( bit_test(lcd_read_byte(),7) ) ;
*
016C:  MOVF   78,W
016D:  MOVWF  44
016E:  BTFSS  44.7
016F:  GOTO   172
0170:  MOVLB  01
0171:  GOTO   13C
....................    lcd_output_rs(address);
0172:  MOVF   42,F
0173:  BTFSS  03.2
0174:  GOTO   179
0175:  MOVLB  02
0176:  BCF    0C.2
0177:  GOTO   17B
0178:  MOVLB  00
0179:  MOVLB  02
017A:  BSF    0C.2
017B:  MOVLB  01
017C:  BCF    0C.2
....................    delay_cycles(1);
017D:  NOP
....................    lcd_output_rw(0);
017E:  MOVLB  02
017F:  BCF    0C.3
0180:  MOVLB  01
0181:  BCF    0C.3
....................    delay_cycles(1);
0182:  NOP
....................    lcd_output_enable(0);
0183:  MOVLB  02
0184:  BCF    0C.1
0185:  MOVLB  01
0186:  BCF    0C.1
....................    lcd_send_nibble(n >> 4);
0187:  MOVLB  00
0188:  SWAPF  43,W
0189:  MOVWF  44
018A:  MOVLW  0F
018B:  ANDWF  44,F
018C:  MOVF   44,W
018D:  MOVWF  45
018E:  CALL   0CC
....................    lcd_send_nibble(n & 0xf);
018F:  MOVF   43,W
0190:  ANDLW  0F
0191:  MOVWF  44
0192:  MOVWF  45
0193:  CALL   0CC
0194:  RETURN
.................... }
.................... 
.................... #if defined(LCD_EXTENDED_NEWLINE)
.................... unsigned int8 g_LcdX, g_LcdY;
.................... #endif
.................... 
.................... void lcd_init(void) 
.................... {
....................    unsigned int8 i;
....................    unsigned int8 LCD_INIT_STRING[4] = {0x20 | (LCD_TYPE << 2), 0xc, 1, 6};
0195:  MOVLW  28
0196:  MOVWF  39
0197:  MOVLW  0C
0198:  MOVWF  3A
0199:  MOVLW  01
019A:  MOVWF  3B
019B:  MOVLW  06
019C:  MOVWF  3C
....................                              // These bytes need to be sent to the LCD
....................                              // to start it up.
....................    
.................... 
....................    lcd_output_enable(0);
019D:  MOVLB  02
019E:  BCF    0C.1
019F:  MOVLB  01
01A0:  BCF    0C.1
....................    lcd_output_rs(0);
01A1:  MOVLB  02
01A2:  BCF    0C.2
01A3:  MOVLB  01
01A4:  BCF    0C.2
....................    lcd_output_rw(0);
01A5:  MOVLB  02
01A6:  BCF    0C.3
01A7:  MOVLB  01
01A8:  BCF    0C.3
.................... 
....................  #if defined(__PCB__)
....................    set_tris_lcd(LCD_OUTPUT_MAP);
....................  #else
....................   #if (defined(LCD_DATA4) && defined(LCD_DATA5) && defined(LCD_DATA6) && defined(LCD_DATA7))
....................    output_drive(LCD_DATA4);
01A9:  BCF    0C.4
....................    output_drive(LCD_DATA5);
01AA:  BCF    0C.5
....................    output_drive(LCD_DATA6);
01AB:  BCF    0C.6
....................    output_drive(LCD_DATA7);
01AC:  BCF    0C.7
....................   #else
....................    lcdtris.data = 0x0;
....................   #endif
....................    lcd_enable_tris();
01AD:  BCF    0C.1
....................    lcd_rs_tris();
01AE:  BCF    0C.2
....................    lcd_rw_tris();
01AF:  BCF    0C.3
....................  #endif
....................     
....................    delay_ms(15);
01B0:  MOVLW  0F
01B1:  MOVLB  00
01B2:  MOVWF  3E
01B3:  CALL   0B6
....................    for(i=1;i<=3;++i)
01B4:  MOVLW  01
01B5:  MOVWF  38
01B6:  MOVF   38,W
01B7:  SUBLW  03
01B8:  BTFSS  03.0
01B9:  GOTO   1C2
....................    {
....................        lcd_send_nibble(3);
01BA:  MOVLW  03
01BB:  MOVWF  45
01BC:  CALL   0CC
....................        delay_ms(5);
01BD:  MOVLW  05
01BE:  MOVWF  3E
01BF:  CALL   0B6
01C0:  INCF   38,F
01C1:  GOTO   1B6
....................    }
....................    
....................    lcd_send_nibble(2);
01C2:  MOVLW  02
01C3:  MOVWF  45
01C4:  CALL   0CC
....................    delay_ms(5);
01C5:  MOVLW  05
01C6:  MOVWF  3E
01C7:  CALL   0B6
....................    for(i=0;i<=3;++i)
01C8:  CLRF   38
01C9:  MOVF   38,W
01CA:  SUBLW  03
01CB:  BTFSS  03.0
01CC:  GOTO   1DC
....................       lcd_send_byte(0,LCD_INIT_STRING[i]);
01CD:  MOVLW  19
01CE:  ADDWF  38,W
01CF:  MOVWF  04
01D0:  MOVLW  20
01D1:  MOVWF  05
01D2:  BTFSC  03.0
01D3:  INCF   05,F
01D4:  MOVF   00,W
01D5:  MOVWF  3D
01D6:  CLRF   42
01D7:  MOVF   3D,W
01D8:  MOVWF  43
01D9:  CALL   134
.................... 
....................   #if defined(LCD_EXTENDED_NEWLINE)
01DA:  INCF   38,F
01DB:  GOTO   1C9
01DC:  MOVLP  00
01DD:  GOTO   39E (RETURN)
....................    g_LcdX = 0;
....................    g_LcdY = 0;
....................   #endif
.................... }
.................... 
.................... void lcd_gotoxy(unsigned int8 x, unsigned int8 y)
.................... {
....................    unsigned int8 address;
....................    
....................    if(y!=1)
*
01EB:  DECFSZ 3F,W
01EC:  GOTO   1EE
01ED:  GOTO   1F1
....................       address=LCD_LINE_TWO;
01EE:  MOVLW  40
01EF:  MOVWF  40
01F0:  GOTO   1F2
....................    else
....................       address=0;
01F1:  CLRF   40
....................      
....................    address+=x-1;
01F2:  MOVLW  01
01F3:  SUBWF  3E,W
01F4:  ADDWF  40,F
....................    lcd_send_byte(0,0x80|address);
01F5:  MOVF   40,W
01F6:  IORLW  80
01F7:  MOVWF  41
01F8:  CLRF   42
01F9:  MOVF   41,W
01FA:  MOVWF  43
01FB:  CALL   134
.................... 
....................   #if defined(LCD_EXTENDED_NEWLINE)
01FC:  RETURN
....................    g_LcdX = x - 1;
....................    g_LcdY = y - 1;
....................   #endif
.................... }
.................... 
.................... void lcd_putc(char c)
.................... {
....................    switch (c)
01FD:  MOVF   3D,W
01FE:  XORLW  07
01FF:  BTFSC  03.2
0200:  GOTO   20B
0201:  XORLW  0B
0202:  BTFSC  03.2
0203:  GOTO   210
0204:  XORLW  06
0205:  BTFSC  03.2
0206:  GOTO   218
0207:  XORLW  02
0208:  BTFSC  03.2
0209:  GOTO   21E
020A:  GOTO   223
....................    {
....................       case '\a'   :  lcd_gotoxy(1,1);     break;
020B:  MOVLW  01
020C:  MOVWF  3E
020D:  MOVWF  3F
020E:  CALL   1EB
020F:  GOTO   228
.................... 
....................       case '\f'   :  lcd_send_byte(0,1);
0210:  CLRF   42
0211:  MOVLW  01
0212:  MOVWF  43
0213:  CALL   134
....................                      delay_ms(2);
0214:  MOVLW  02
0215:  MOVWF  3E
0216:  CALL   0B6
....................                     #if defined(LCD_EXTENDED_NEWLINE)
....................                      g_LcdX = 0;
....................                      g_LcdY = 0;
....................                     #endif
....................                      break;
0217:  GOTO   228
.................... 
....................      #if defined(LCD_EXTENDED_NEWLINE)
....................       case '\r'   :  lcd_gotoxy(1, g_LcdY+1);   break;
....................       case '\n'   :
....................          while (g_LcdX++ < LCD_LINE_LENGTH)
....................          {
....................             lcd_send_byte(1, ' ');
....................          }
....................          lcd_gotoxy(1, g_LcdY+2);
....................          break;
....................      #else
....................       case '\n'   : lcd_gotoxy(1,2);        break;
0218:  MOVLW  01
0219:  MOVWF  3E
021A:  MOVLW  02
021B:  MOVWF  3F
021C:  CALL   1EB
021D:  GOTO   228
....................      #endif
....................      
....................       case '\b'   : lcd_send_byte(0,0x10);  break;
021E:  CLRF   42
021F:  MOVLW  10
0220:  MOVWF  43
0221:  CALL   134
0222:  GOTO   228
....................      
....................      #if defined(LCD_EXTENDED_NEWLINE)
....................       default     : 
....................          if (g_LcdX < LCD_LINE_LENGTH)
....................          {
....................             lcd_send_byte(1, c);
....................             g_LcdX++;
....................          }
....................          break;
....................      #else
....................       default     : lcd_send_byte(1,c);     break;
0223:  MOVLW  01
0224:  MOVWF  42
0225:  MOVF   3D,W
0226:  MOVWF  43
0227:  CALL   134
....................      #endif
....................    }
0228:  RETURN
.................... }
....................  
.................... char lcd_getc(unsigned int8 x, unsigned int8 y)
.................... {
....................    char value;
.................... 
....................    lcd_gotoxy(x,y);
....................    while ( bit_test(lcd_read_byte(),7) ); // wait until busy flag is low
....................    lcd_output_rs(1);
....................    value = lcd_read_byte();
....................    lcd_output_rs(0);
....................    
....................    return(value);
.................... }
.................... 
.................... // write a custom character to the ram
.................... // which is 0-7 and specifies which character array we are modifying.
.................... // ptr points to an array of 8 bytes, where each byte is the next row of
.................... //    pixels.  only bits 0-4 are used.  the last row is the cursor row, and
.................... //    usually you will want to leave this byte 0x00.
.................... void lcd_set_cgram_char(unsigned int8 which, unsigned int8 *ptr)
.................... {
....................    unsigned int i;
.................... 
....................    which <<= 3;
....................    which &= 0x38;
.................... 
....................    lcd_send_byte(0, 0x40 | which);  //set cgram address
.................... 
....................    for(i=0; i<8; i++)
....................    {
....................       lcd_send_byte(1, *ptr++);
....................    }
....................   
....................    #if defined(LCD_EXTENDED_NEWLINE)
....................     lcd_gotoxy(g_LcdX+1, g_LcdY+1);  //set ddram address
....................    #endif
.................... }
.................... 
.................... void lcd_cursor_on(int1 on)
.................... {
....................    if (on)
....................    {
....................       lcd_send_byte(0,0x0F);           //turn LCD cursor ON
....................    }
....................    else
....................    {
....................       lcd_send_byte(0,0x0C);           //turn LCD cursor OFF
....................    }
.................... }
.................... 
.................... #endif
.................... 
.................... 
.................... #define use_portb_kbd TRUE //defino el portb como donde va el teclado
.................... #include <kbd.c>
.................... ///////////////////////////////////////////////////////////////////////////
.................... ////                             KBD.C                                 ////
.................... ////                  Generic keypad scan driver                       ////
.................... ////                                                                   ////
.................... ////  kbd_init()   Must be called before any other function.           ////
.................... ////                                                                   ////
.................... ////  c = kbd_getc()  Will return a key value if pressed or /0 if not  ////
.................... ////                   This function should be called frequently so as ////
.................... ////                   not to miss a key press.                        ////
.................... ////                                                                   ////
.................... ///////////////////////////////////////////////////////////////////////////
.................... ////        (C) Copyright 1996,2003 Custom Computer Services           ////
.................... //// This source code may only be used by licensed users of the CCS C  ////
.................... //// compiler.  This source code may only be distributed to other      ////
.................... //// licensed users of the CCS C compiler.  No other use, reproduction ////
.................... //// or distribution is permitted without written permission.          ////
.................... //// Derivative programs created using this software in object code    ////
.................... //// form are not restricted in any way.                               ////
.................... ///////////////////////////////////////////////////////////////////////////
.................... 
.................... ////////////////// The following defines the keypad layout on port D
.................... 
.................... // Un-comment the following define to use port B
.................... // #define use_portb_kbd TRUE
.................... 
.................... // Make sure the port used has pull-up resistors (or the LCD) on
.................... // the column pins
.................... 
.................... #if defined use_portb_kbd
....................    #byte kbd = getenv("SFR:PORTB")
.................... #else
....................    #byte kbd = getenv("SFR:PORTD")
.................... #endif
.................... 
.................... #if defined use_portb_kbd
....................    #define set_tris_kbd(x) set_tris_b(x)
.................... #else
....................    #define set_tris_kbd(x) set_tris_d(x)
.................... #endif
.................... 
.................... //Keypad connection:   (for example column 0 is B2)
.................... //                Bx:
.................... 
.................... #ifdef blue_keypad  ///////////////////////////////////// For the blue keypad
.................... #define COL0 (1 << 2)
.................... #define COL1 (1 << 3)
.................... #define COL2 (1 << 6)
.................... 
.................... #define ROW0 (1 << 4)
.................... #define ROW1 (1 << 7)
.................... #define ROW2 (1 << 1)
.................... #define ROW3 (1 << 5)
.................... 
.................... #else ////////////////////////////////////////////////// For the black keypad
.................... #define COL0 (1 << 5)
.................... #define COL1 (1 << 6)
.................... #define COL2 (1 << 7)
.................... 
.................... #define ROW0 (1 << 1)
.................... #define ROW1 (1 << 2)
.................... #define ROW2 (1 << 3)
.................... #define ROW3 (1 << 4)
.................... 
.................... #endif
.................... 
.................... #define ALL_ROWS (ROW0|ROW1|ROW2|ROW3)
.................... #define ALL_PINS (ALL_ROWS|COL0|COL1|COL2)
.................... 
.................... // Keypad layout:
.................... char const KEYS[4][3] = {{'1','2','3'},
....................                          {'4','5','6'},
....................                          {'7','8','9'},
....................                          {'*','0','#'}};
.................... 
.................... #define KBD_DEBOUNCE_FACTOR 33    // Set this number to apx n/333 where
....................                                   // n is the number of times you expect
....................                                   // to call kbd_getc each second
.................... 
.................... 
.................... void kbd_init() {
*
01DE:  MOVLP  00
01DF:  GOTO   39F (RETURN)
.................... }
.................... 
.................... char kbd_getc( ) {
....................    static BYTE kbd_call_count;
....................    static int1 kbd_down;
....................    static char last_key;
....................    static BYTE col;
.................... 
....................    BYTE kchar;
....................    BYTE row;
.................... 
....................    kchar='\0';
*
0295:  CLRF   38
....................    if(++kbd_call_count>KBD_DEBOUNCE_FACTOR) {
0296:  INCF   28,F
0297:  MOVF   28,W
0298:  SUBLW  21
0299:  BTFSC  03.0
029A:  GOTO   316
....................        switch (col) {
029B:  MOVF   2B,W
029C:  BTFSC  03.2
029D:  GOTO   2A5
029E:  XORLW  01
029F:  BTFSC  03.2
02A0:  GOTO   2AB
02A1:  XORLW  03
02A2:  BTFSC  03.2
02A3:  GOTO   2B1
02A4:  GOTO   2B6
....................          case 0   : set_tris_kbd(ALL_PINS&~COL0);
02A5:  MOVLW  DE
02A6:  MOVLB  01
02A7:  MOVWF  0D
....................                     kbd=~COL0&ALL_PINS;
02A8:  MOVLB  00
02A9:  MOVWF  0D
....................                     break;
02AA:  GOTO   2B6
....................          case 1   : set_tris_kbd(ALL_PINS&~COL1);
02AB:  MOVLW  BE
02AC:  MOVLB  01
02AD:  MOVWF  0D
....................                     kbd=~COL1&ALL_PINS;
02AE:  MOVLB  00
02AF:  MOVWF  0D
....................                     break;
02B0:  GOTO   2B6
....................          case 2   : set_tris_kbd(ALL_PINS&~COL2);
02B1:  MOVLW  7E
02B2:  MOVLB  01
02B3:  MOVWF  0D
....................                     kbd=~COL2&ALL_PINS;
02B4:  MOVLB  00
02B5:  MOVWF  0D
....................                     break;
....................        }
.................... 
....................        if(kbd_down) {
02B6:  BTFSS  29.0
02B7:  GOTO   2C2
....................          if((kbd & (ALL_ROWS))==(ALL_ROWS)) {
02B8:  MOVF   0D,W
02B9:  ANDLW  1E
02BA:  SUBLW  1E
02BB:  BTFSS  03.2
02BC:  GOTO   2C1
....................            kbd_down=FALSE;
02BD:  BCF    29.0
....................            kchar=last_key;
02BE:  MOVF   2A,W
02BF:  MOVWF  38
....................            last_key='\0';
02C0:  CLRF   2A
....................          }
....................        } else {
02C1:  GOTO   315
....................           if((kbd & (ALL_ROWS))!=(ALL_ROWS)) {
02C2:  MOVF   0D,W
02C3:  ANDLW  1E
02C4:  SUBLW  1E
02C5:  BTFSC  03.2
02C6:  GOTO   310
....................              if((kbd & ROW0)==0)
02C7:  MOVF   0D,W
02C8:  ANDLW  02
02C9:  BTFSS  03.2
02CA:  GOTO   2CD
....................                row=0;
02CB:  CLRF   39
02CC:  GOTO   2E1
....................              else if((kbd & ROW1)==0)
02CD:  MOVF   0D,W
02CE:  ANDLW  04
02CF:  BTFSS  03.2
02D0:  GOTO   2D4
....................                row=1;
02D1:  MOVLW  01
02D2:  MOVWF  39
02D3:  GOTO   2E1
....................              else if((kbd & ROW2)==0)
02D4:  MOVF   0D,W
02D5:  ANDLW  08
02D6:  BTFSS  03.2
02D7:  GOTO   2DB
....................                row=2;
02D8:  MOVLW  02
02D9:  MOVWF  39
02DA:  GOTO   2E1
....................              else if((kbd & ROW3)==0)
02DB:  MOVF   0D,W
02DC:  ANDLW  10
02DD:  BTFSS  03.2
02DE:  GOTO   2E1
....................                row=3;
02DF:  MOVLW  03
02E0:  MOVWF  39
....................              last_key =KEYS[row][col];
02E1:  MOVF   39,W
02E2:  MOVWF  3A
02E3:  MOVLW  03
02E4:  MOVWF  3B
*
0309:  MOVF   2B,W
030A:  ADDWF  78,W
030B:  CALL   03E
030C:  MOVWF  78
030D:  MOVWF  2A
....................              kbd_down = TRUE;
030E:  BSF    29.0
....................           } else {
030F:  GOTO   315
....................              ++col;
0310:  INCF   2B,F
....................              if(col==3)
0311:  MOVF   2B,W
0312:  SUBLW  03
0313:  BTFSC  03.2
....................                col=0;
0314:  CLRF   2B
....................           }
....................        }
....................       kbd_call_count=0;
0315:  CLRF   28
....................    }
....................   set_tris_kbd(ALL_PINS);
0316:  MOVLW  FE
0317:  MOVLB  01
0318:  MOVWF  0D
....................   return(kchar);
0319:  MOVLB  00
031A:  MOVF   38,W
031B:  MOVWF  78
.................... }
.................... 
.................... 
.................... /*****************************************************************************
....................  * Funciones de Inicializacion de Perifericos
....................  ****************************************************************************/
....................  
.................... void Init_GPIO(void);
.................... void Init_ADC(void);
.................... void InitTimer0(void);
.................... 
.................... /*****************************************************************************
.................... * Estados
.................... ****************************************************************************/
.................... typedef enum {
....................     ESCRITURA,
....................     LECTURA, 
.................... } eEstado;
.................... 
.................... eEstado estado_actual = LECTURA;
.................... 
.................... /*****************************************************************************
.................... * Funciones
.................... ****************************************************************************/
.................... 
.................... void maquina(void);
.................... int comparadorcontra(void);
.................... 
.................... /*****************************************************************************
.................... * Variables globales
.................... ****************************************************************************/
.................... 
.................... /* ADC */
.................... /*int16 resultado_adc=0;
.................... int flag_adc = 0;*/
.................... 
.................... 
.................... /* TIMER 0 */
.................... int contador_ms = 0;
.................... int flag_segundo = 0;
.................... 
.................... /* TECLAS */
.................... char tecla;
....................  char cont_ing[3]; //donde voy a guardar el dato
....................  char contra_real [3]={'2','5','3'}; //la contraseña con la q voy a verificar
....................  int contador_boton_pres = 0; //contador de cuantas veces se preciono el boton
.................... /*****************************************************************************
.................... * Interrupciones
.................... ****************************************************************************/
.................... 
.................... #INT_TIMER0 // ACA ESCRIBO QUÉ DEBO HACER EN CADA INTERRUPCIÓN
.................... void Timer0_ISR() {
....................   
....................   set_timer0(61);
*
004B:  MOVLW  3D
004C:  MOVWF  15
....................   if(contador_ms >= 20) { //PASO 1 SEG
004D:  MOVF   2C,W
004E:  SUBLW  13
004F:  BTFSC  03.0
0050:  GOTO   054
....................        contador_ms = 0;
0051:  CLRF   2C
....................        flag_segundo = 1; // aviso que ya pasó el tiempo deseado
0052:  MOVLW  01
0053:  MOVWF  2D
....................    }
....................    contador_ms++;
0054:  INCF   2C,F
0055:  BCF    0B.2
0056:  MOVLP  00
0057:  GOTO   023
.................... }
.................... 
.................... /*#INT_AD
.................... void ISR_ADC(void) {
....................    resultado_adc = read_adc(ADC_READ_ONLY);
....................    flag_adc = 1;
....................    
.................... }*/
.................... 
.................... /*****************************************************************************
.................... * Main
.................... ****************************************************************************/
.................... void main()
*
037E:  MOVLW  6A
037F:  MOVLB  01
0380:  MOVWF  19
0381:  MOVLB  00
0382:  BSF    29.1
0383:  CLRF   2C
0384:  CLRF   2D
0385:  CLRF   35
0386:  CLRF   37
0387:  CLRF   36
0388:  MOVLB  03
0389:  CLRF   0C
038A:  CLRF   0D
038B:  MOVLB  02
038C:  CLRF   12
038D:  CLRF   11
038E:  CLRF   14
038F:  CLRF   13
0390:  MOVLB  00
0391:  BCF    29.0
0392:  CLRF   28
0393:  BCF    29.0
0394:  CLRF   2A
0395:  CLRF   2B
0396:  MOVLW  32
0397:  MOVWF  32
0398:  MOVLW  35
0399:  MOVWF  33
039A:  MOVLW  33
039B:  MOVWF  34
.................... {
.................... 
....................    Init_GPIO();
039C:  GOTO   08B
....................    lcd_init(); //inicializo el led
039D:  GOTO   195
....................    kbd_init();//inicializo el teclado
039E:  GOTO   1DE
....................    //Init_ADC();
....................    InitTimer0();
039F:  GOTO   1E0
.................... 
....................    while(TRUE) {
....................       maquina();
03A0:  GOTO   284
03A1:  GOTO   3A0
....................    }
.................... 
.................... }
.................... 
03A2:  SLEEP
.................... void maquina(void) {
.................... 
....................  switch(estado_actual) {
*
0284:  MOVLW  00
0285:  BTFSC  29.1
0286:  MOVLW  01
0287:  XORLW  01
0288:  BTFSC  03.2
0289:  GOTO   28E
028A:  XORLW  01
028B:  BTFSC  03.2
028C:  GOTO   33A
028D:  GOTO   37B
....................   
....................   case LECTURA:
....................      lcd_putc("\f Ingrese clave");
028E:  MOVLW  58
028F:  MOVLB  03
0290:  MOVWF  11
0291:  MOVLW  00
0292:  MOVWF  12
0293:  MOVLB  00
0294:  CALL   229
....................      //read_adc(ADC_START_ONLY); // SIEMPRE ESTOY LEYENDO HASTA PERO ESPERO AL BOTÓN
....................       tecla = kbd_getc(); //leo
*
031C:  MOVF   78,W
031D:  MOVWF  2E
....................      if(tecla){
031E:  MOVF   2E,F
031F:  BTFSC  03.2
0320:  GOTO   335
....................       lcd_putc("\f");
0321:  MOVLW  03
0322:  MOVLB  03
0323:  MOVWF  11
0324:  MOVLW  00
0325:  MOVWF  12
0326:  MOVLB  00
0327:  CALL   229
....................       lcd_putc(tecla);
0328:  MOVF   2E,W
0329:  MOVWF  3D
032A:  CALL   1FD
....................       cont_ing[contador_boton_pres]= tecla;
032B:  MOVLW  0F
032C:  ADDWF  35,W
032D:  MOVWF  04
032E:  MOVLW  20
032F:  MOVWF  05
0330:  BTFSC  03.0
0331:  INCF   05,F
0332:  MOVF   2E,W
0333:  MOVWF  00
....................       contador_boton_pres++; //cada vez q presiono el boton cuento
0334:  INCF   35,F
....................      }
....................       if(contador_boton_pres>=3)
0335:  MOVF   35,W
0336:  SUBLW  02
0337:  BTFSS  03.0
....................          estado_actual = ESCRITURA;
0338:  BCF    29.1
....................        
....................   break;
0339:  GOTO   37C
.................... 
....................   case ESCRITURA:
....................     
....................     if(flag_segundo == 1 && contador_boton_pres>=3) {
033A:  DECFSZ 2D,W
033B:  GOTO   37A
033C:  MOVF   35,W
033D:  SUBLW  02
033E:  BTFSC  03.0
033F:  GOTO   37A
....................       lcd_putc("\f");
0340:  MOVLW  60
0341:  MOVLB  03
0342:  MOVWF  11
0343:  MOVLW  00
0344:  MOVWF  12
0345:  MOVLB  00
0346:  CALL   229
....................       
....................       if(comparadorcontra() == 0 ){
*
0367:  MOVF   78,F
0368:  BTFSS  03.2
0369:  GOTO   371
....................          printf(LCD_PUTC,"Contraseña Incorrecta");
036A:  MOVLW  61
036B:  CLRF   05
036C:  MOVWF  04
036D:  MOVLW  80
036E:  MOVWF  05
036F:  CALL   273
....................       }else{
0370:  GOTO   377
....................          printf(LCD_PUTC,"Contraseña Correcta");
0371:  MOVLW  77
0372:  CLRF   05
0373:  MOVWF  04
0374:  MOVLW  80
0375:  MOVWF  05
0376:  CALL   273
....................       }
....................       
....................       flag_segundo = 0;
0377:  CLRF   2D
....................       //flag_adc = 0;
....................       contador_boton_pres=0;
0378:  CLRF   35
....................       estado_actual = LECTURA;
0379:  BSF    29.1
....................     }
....................   break;
037A:  GOTO   37C
....................   
....................   default:
....................   estado_actual = LECTURA;
037B:  BSF    29.1
.................... 
....................  }
037C:  MOVLP  00
037D:  GOTO   3A1 (RETURN)
.................... }
.................... 
.................... int comparadorcontra(void){
....................    int j;
....................    for(j=0;j<3;j++){
*
0347:  CLRF   38
0348:  MOVF   38,W
0349:  SUBLW  02
034A:  BTFSS  03.0
034B:  GOTO   365
....................       if(cont_ing[j] != contra_real[j]) //si llego a tener alguno diferente devuelvo 0, sino devuelvo 1
034C:  MOVLW  0F
034D:  ADDWF  38,W
034E:  MOVWF  04
034F:  MOVLW  20
0350:  MOVWF  05
0351:  BTFSC  03.0
0352:  INCF   05,F
0353:  MOVF   00,W
0354:  MOVWF  39
0355:  MOVLW  12
0356:  ADDWF  38,W
0357:  MOVWF  04
0358:  MOVLW  20
0359:  MOVWF  05
035A:  BTFSC  03.0
035B:  INCF   05,F
035C:  MOVF   00,W
035D:  SUBWF  39,W
035E:  BTFSC  03.2
035F:  GOTO   363
....................          return 0;
0360:  MOVLW  00
0361:  MOVWF  78
0362:  GOTO   367
0363:  INCF   38,F
0364:  GOTO   348
....................    }
....................    return 1;
0365:  MOVLW  01
0366:  MOVWF  78
.................... }
.................... 
.................... 
.................... 
.................... /*void Init_ADC() {
.................... 
.................... setup_adc_ports(sAN0);
.................... setup_adc(ADC_CLOCK_INTERNAL);
.................... set_adc_channel(0);
.................... enable_interrupts(INT_AD);
.................... 
.................... }*/
.................... 
.................... void InitTimer0(void) {
.................... 
....................     setup_timer_0(RTCC_INTERNAL|RTCC_DIV_256); // Configuro prescaler
*
01E0:  MOVLB  01
01E1:  MOVF   15,W
01E2:  ANDLW  C0
01E3:  IORLW  07
01E4:  MOVWF  15
....................     
....................     set_timer0(61);                  // Reinicio el timer --> Interrupciones cada 50ms
01E5:  MOVLW  3D
01E6:  MOVLB  00
01E7:  MOVWF  15
....................     enable_interrupts(INT_TIMER0);    // Activo Interrupcion timer0
01E8:  BSF    0B.5
01E9:  MOVLP  00
01EA:  GOTO   3A0 (RETURN)
....................     
.................... }
.................... 
.................... void Init_GPIO()
.................... {
....................    set_tris_a(0x00);
*
008B:  MOVLW  00
008C:  MOVLB  01
008D:  MOVWF  0C
....................    set_tris_b(0xFF);
008E:  MOVLW  FF
008F:  MOVWF  0D
.................... 
....................    output_low(PIN_A1);
0090:  BCF    0C.1
0091:  MOVLB  02
0092:  BCF    0C.1
....................    output_low(PIN_A2);
0093:  MOVLB  01
0094:  BCF    0C.2
0095:  MOVLB  02
0096:  BCF    0C.2
....................    output_low(PIN_A3);
0097:  MOVLB  01
0098:  BCF    0C.3
0099:  MOVLB  02
009A:  BCF    0C.3
....................    output_low(PIN_A4);
009B:  MOVLB  01
009C:  BCF    0C.4
009D:  MOVLB  02
009E:  BCF    0C.4
....................    output_low(PIN_A5);
009F:  MOVLB  01
00A0:  BCF    0C.5
00A1:  MOVLB  02
00A2:  BCF    0C.5
....................    output_low(PIN_A6);
00A3:  MOVLB  01
00A4:  BCF    0C.6
00A5:  MOVLB  02
00A6:  BCF    0C.6
....................    output_low(PIN_A7);
00A7:  MOVLB  01
00A8:  BCF    0C.7
00A9:  MOVLB  02
00AA:  BCF    0C.7
....................    
....................    port_b_pullups(TRUE);
00AB:  MOVLW  01
00AC:  MOVLB  04
00AD:  MOVWF  0D
00AE:  MOVLB  01
00AF:  BCF    15.7
....................    
....................    enable_interrupts(INT_EXT);
00B0:  BSF    0B.4
....................    enable_interrupts(GLOBAL);
00B1:  MOVLW  C0
00B2:  IORWF  0B,F
00B3:  MOVLP  00
00B4:  MOVLB  00
00B5:  GOTO   39D (RETURN)
.................... }

Configuration Fuses:
   Word  1: 3F84   INTRC_IO NOWDT PUT NOMCLR NOPROTECT NOCPD BROWNOUT NOCLKOUT IESO FCMEN
   Word  2: 1EFF   NOWRT PLL_SW STVREN BORV19 NODEBUG NOLVP
