CCS PCM C Compiler, Version 5.093, 4770               16-sep.-25 16:05

               Filename:   C:\Users\MPF\Desktop\Git\Electr-nica-Digital-2\Guia 1\AntiRebote\AntiRebote3.lst

               ROM used:   781 words (19%)
                           Largest free fragment is 2048
               RAM used:   16 (4%) at main() level
                           46 (12%) worst case
               Stack used: 6 locations (5 in main + 1 for interrupts)
               Stack size: 16

0000:  MOVLP  00
0001:  GOTO   2E7
0002:  NOP
*
0004:  CLRF   03
0005:  MOVLP  00
0006:  MOVLB  00
0007:  MOVF   77,W
0008:  MOVWF  20
0009:  MOVF   78,W
000A:  MOVWF  21
000B:  MOVF   79,W
000C:  MOVWF  22
000D:  MOVF   7A,W
000E:  MOVWF  23
000F:  MOVLB  03
0010:  MOVF   11,W
0011:  MOVLB  00
0012:  MOVWF  24
0013:  MOVLB  03
0014:  MOVF   12,W
0015:  MOVLB  00
0016:  MOVWF  25
0017:  MOVLB  03
0018:  MOVF   13,W
0019:  MOVLB  00
001A:  MOVWF  26
001B:  MOVLB  03
001C:  MOVF   14,W
001D:  MOVLB  00
001E:  MOVWF  27
001F:  BTFSS  0B.5
0020:  GOTO   023
0021:  BTFSC  0B.2
0022:  GOTO   03C
0023:  MOVF   20,W
0024:  MOVWF  77
0025:  MOVF   21,W
0026:  MOVWF  78
0027:  MOVF   22,W
0028:  MOVWF  79
0029:  MOVF   23,W
002A:  MOVWF  7A
002B:  MOVF   24,W
002C:  MOVLB  03
002D:  MOVWF  11
002E:  MOVLB  00
002F:  MOVF   25,W
0030:  MOVLB  03
0031:  MOVWF  12
0032:  MOVLB  00
0033:  MOVF   26,W
0034:  MOVLB  03
0035:  MOVWF  13
0036:  MOVLB  00
0037:  MOVF   27,W
0038:  MOVLB  03
0039:  MOVWF  14
003A:  RETFIE
003B:  MOVLB  00
003C:  MOVLP  00
003D:  GOTO   03E
.................... #include <AntiRebote3.h>
.................... #include <16F1827.h>
.................... //////////// Standard Header file for the PIC16F1827 device ////////////////
.................... ///////////////////////////////////////////////////////////////////////////
.................... ////        (C) Copyright 1996, 2014 Custom Computer Services          ////
.................... //// This source code may only be used by licensed users of the CCS C  ////
.................... //// compiler.  This source code may only be distributed to other      ////
.................... //// licensed users of the CCS C compiler.  No other use, reproduction ////
.................... //// or distribution is permitted without written permission.          ////
.................... //// Derivative programs created using this software in object code    ////
.................... //// form are not restricted in any way.                               ////
.................... ///////////////////////////////////////////////////////////////////////////
.................... #device PIC16F1827
*
0046:  DATA C3,3A
0047:  DATA 65,37
0048:  DATA F4,30
0049:  DATA 3A,10
004A:  DATA 25,32
004B:  DATA 00,00
004C:  DATA C3,3A
004D:  DATA 65,37
004E:  DATA F4,30
004F:  DATA 3A,10
0050:  DATA 25,32
0051:  DATA 00,00
*
01D0:  MOVF   0B,W
01D1:  BCF    0B.7
01D2:  MOVLB  03
01D3:  BSF    15.7
01D4:  BSF    15.0
01D5:  NOP
01D6:  NOP
01D7:  BTFSC  09.7
01D8:  BSF    0B.7
01D9:  BTFSC  03.0
01DA:  GOTO   201
01DB:  MOVF   13,W
01DC:  ANDLW  7F
01DD:  MOVLB  00
01DE:  MOVWF  31
01DF:  MOVLB  03
01E0:  MOVF   11,W
01E1:  MOVLB  00
01E2:  MOVWF  32
01E3:  MOVLB  03
01E4:  MOVF   12,W
01E5:  MOVLB  00
01E6:  MOVWF  33
01E7:  MOVF   31,W
01E8:  MOVWF  34
01E9:  CALL   1A4
01EA:  MOVF   32,W
01EB:  MOVLB  03
01EC:  MOVWF  11
01ED:  MOVLB  00
01EE:  MOVF   33,W
01EF:  MOVLB  03
01F0:  MOVWF  12
01F1:  MOVF   0B,W
01F2:  BCF    0B.7
01F3:  BSF    15.7
01F4:  BSF    15.0
01F5:  NOP
01F6:  NOP
01F7:  BTFSC  09.7
01F8:  BSF    0B.7
01F9:  MOVLB  00
01FA:  DECFSZ 2E,F
01FB:  GOTO   1FD
01FC:  GOTO   1FF
01FD:  MOVLB  03
01FE:  GOTO   201
01FF:  GOTO   21F
0200:  MOVLB  03
0201:  RLF    13,W
0202:  RLF    14,W
0203:  ANDLW  7F
0204:  MOVLB  00
0205:  MOVWF  31
0206:  MOVLB  03
0207:  MOVF   11,W
0208:  MOVLB  00
0209:  MOVWF  32
020A:  MOVLB  03
020B:  MOVF   12,W
020C:  MOVLB  00
020D:  MOVWF  33
020E:  MOVF   31,W
020F:  MOVWF  34
0210:  CALL   1A4
0211:  MOVF   32,W
0212:  MOVLB  03
0213:  MOVWF  11
0214:  MOVLB  00
0215:  MOVF   33,W
0216:  MOVLB  03
0217:  MOVWF  12
0218:  INCF   11,F
0219:  BTFSC  03.2
021A:  INCF   12,F
021B:  BCF    03.0
021C:  MOVLB  00
021D:  DECFSZ 2E,F
021E:  GOTO   1D0
021F:  RETURN
0220:  MOVF   35,W
0221:  CLRF   78
0222:  SUBWF  34,W
0223:  BTFSC  03.0
0224:  GOTO   228
0225:  MOVF   34,W
0226:  MOVWF  77
0227:  GOTO   234
0228:  CLRF   77
0229:  MOVLW  08
022A:  MOVWF  36
022B:  RLF    34,F
022C:  RLF    77,F
022D:  MOVF   35,W
022E:  SUBWF  77,W
022F:  BTFSC  03.0
0230:  MOVWF  77
0231:  RLF    78,F
0232:  DECFSZ 36,F
0233:  GOTO   22B
0234:  RETURN
0235:  MOVLW  20
0236:  BTFSS  2F.4
0237:  MOVLW  30
0238:  MOVWF  30
0239:  MOVF   2E,W
023A:  MOVWF  77
023B:  BTFSS  2E.7
023C:  GOTO   245
023D:  COMF   77,F
023E:  INCF   77,F
023F:  MOVF   77,W
0240:  MOVWF  2E
0241:  MOVLW  2D
0242:  MOVWF  30
0243:  BSF    2F.7
0244:  BSF    2F.0
0245:  MOVF   2E,W
0246:  MOVWF  34
0247:  MOVLW  64
0248:  MOVWF  35
0249:  CALL   220
024A:  MOVF   77,W
024B:  MOVWF  2E
024C:  MOVLW  30
024D:  ADDWF  78,W
024E:  MOVWF  31
024F:  MOVF   2E,W
0250:  MOVWF  34
0251:  MOVLW  0A
0252:  MOVWF  35
0253:  CALL   220
0254:  MOVLW  30
0255:  ADDWF  77,W
0256:  MOVWF  33
0257:  MOVLW  30
0258:  ADDWF  78,W
0259:  MOVWF  32
025A:  MOVF   30,W
025B:  MOVWF  77
025C:  MOVLW  30
025D:  SUBWF  31,W
025E:  BTFSC  03.2
025F:  GOTO   264
0260:  BSF    2F.1
0261:  BTFSC  2F.7
0262:  BSF    2F.2
0263:  GOTO   278
0264:  MOVF   30,W
0265:  MOVWF  31
0266:  MOVLW  20
0267:  MOVWF  30
0268:  MOVLW  30
0269:  SUBWF  32,W
026A:  BTFSC  03.2
026B:  GOTO   270
026C:  BSF    2F.0
026D:  BTFSC  2F.7
026E:  BSF    2F.1
026F:  GOTO   278
0270:  BTFSS  03.2
0271:  BSF    2F.0
0272:  BTFSS  03.2
0273:  GOTO   278
0274:  MOVF   31,W
0275:  MOVWF  32
0276:  MOVLW  20
0277:  MOVWF  31
0278:  BTFSC  2F.2
0279:  GOTO   27F
027A:  BTFSC  2F.1
027B:  GOTO   282
027C:  BTFSC  2F.0
027D:  GOTO   285
027E:  GOTO   288
027F:  MOVF   30,W
0280:  MOVWF  34
0281:  CALL   1A4
0282:  MOVF   31,W
0283:  MOVWF  34
0284:  CALL   1A4
0285:  MOVF   32,W
0286:  MOVWF  34
0287:  CALL   1A4
0288:  MOVF   33,W
0289:  MOVWF  34
028A:  CALL   1A4
028B:  RETURN
*
02DF:  BCF    0A.0
02E0:  BSF    0A.1
02E1:  BCF    0A.2
02E2:  ADDWF  02,F
02E3:  GOTO   29D
02E4:  GOTO   2A5
02E5:  GOTO   2AC
02E6:  GOTO   2BB
.................... 
.................... #list
.................... 
.................... #device ADC=10
.................... #use delay(internal=4MHz)
*
005D:  MOVLW  20
005E:  MOVWF  05
005F:  MOVLW  15
0060:  MOVWF  04
0061:  MOVF   00,W
0062:  BTFSC  03.2
0063:  GOTO   072
0064:  MOVLW  01
0065:  MOVWF  78
0066:  CLRF   77
0067:  DECFSZ 77,F
0068:  GOTO   067
0069:  DECFSZ 78,F
006A:  GOTO   066
006B:  MOVLW  4A
006C:  MOVWF  77
006D:  DECFSZ 77,F
006E:  GOTO   06D
006F:  GOTO   070
0070:  DECFSZ 00,F
0071:  GOTO   064
0072:  RETURN
.................... 
.................... 
.................... 
.................... #fuses INTRC_IO   // Oscilador interno con pines RA6 y RA7 como GPIO
.................... #fuses NOMCLR     // Desactivo el MCLR
.................... #fuses NOWDT      // Desactivo el watchdog
.................... 
.................... /*****************************************************************************
....................  * LCD
....................  ****************************************************************************/
.................... 
.................... #define LCD_ENABLE_PIN  PIN_B0
.................... #define LCD_RS_PIN      PIN_B1
.................... #define LCD_RW_PIN      PIN_B2
.................... #define LCD_DATA4       PIN_B4
.................... #define LCD_DATA5       PIN_B5
.................... #define LCD_DATA6       PIN_B6
.................... #define LCD_DATA7       PIN_B7
.................... #include <lcd.c>
.................... ///////////////////////////////////////////////////////////////////////////////
.................... ////                             LCD.C                                     ////
.................... ////                 Driver for common LCD modules                         ////
.................... ////                                                                       ////
.................... ////  lcd_init()   Must be called before any other function.               ////
.................... ////                                                                       ////
.................... ////  lcd_putc(c)  Will display c on the next position of the LCD.         ////
.................... ////                 \a  Set cursor position to upper left                 ////
.................... ////                 \f  Clear display, set cursor to upper left           ////
.................... ////                 \n  Go to start of second line                        ////
.................... ////                 \b  Move back one position                            ////
.................... ////              If LCD_EXTENDED_NEWLINE is defined, the \n character     ////
.................... ////              will erase all remanining characters on the current      ////
.................... ////              line, and move the cursor to the beginning of the next   ////
.................... ////              line.                                                    ////
.................... ////              If LCD_EXTENDED_NEWLINE is defined, the \r character     ////
.................... ////              will move the cursor to the start of the current         ////
.................... ////              line.                                                    ////
.................... ////                                                                       ////
.................... ////  lcd_gotoxy(x,y) Set write position on LCD (upper left is 1,1)        ////
.................... ////                                                                       ////
.................... ////  lcd_getc(x,y)   Returns character at position x,y on LCD             ////
.................... ////                                                                       ////
.................... ////  lcd_cursor_on(int1 on)   Turn the cursor on (on=TRUE) or off         ////
.................... ////              (on=FALSE).                                              ////
.................... ////                                                                       ////
.................... ////  lcd_set_cgram_char(w, *p)   Write a custom character to the CGRAM.   ////
.................... ////                                                                       ////
.................... ////                                                                       ////
.................... ////  CONFIGURATION                                                        ////
.................... ////  The LCD can be configured in one of two ways: a.) port access or     ////
.................... ////  b.) pin access.  Port access requires the entire 7 bit interface     ////
.................... ////  connected to one GPIO port, and the data bits (D4:D7 of the LCD)     ////
.................... ////  connected to sequential pins on the GPIO.  Pin access                ////
.................... ////  has no requirements, all 7 bits of the control interface can         ////
.................... ////  can be connected to any GPIO using several ports.                    ////
.................... ////                                                                       ////
.................... ////  To use port access, #define LCD_DATA_PORT to the SFR location of     ////
.................... ////  of the GPIO port that holds the interface, -AND- edit LCD_PIN_MAP    ////
.................... ////  of this file to configure the pin order.  If you are using a         ////
.................... ////  baseline PIC (PCB), then LCD_OUTPUT_MAP and LCD_INPUT_MAP also must  ////
.................... ////  be defined.                                                          ////
.................... ////                                                                       ////
.................... ////  Example of port access:                                              ////
.................... ////     #define LCD_DATA_PORT getenv("SFR:PORTD")                         ////
.................... ////                                                                       ////
.................... ////  To use pin access, the following pins must be defined:               ////
.................... ////     LCD_ENABLE_PIN                                                    ////
.................... ////     LCD_RS_PIN                                                        ////
.................... ////     LCD_RW_PIN                                                        ////
.................... ////     LCD_DATA4                                                         ////
.................... ////     LCD_DATA5                                                         ////
.................... ////     LCD_DATA6                                                         ////
.................... ////     LCD_DATA7                                                         ////
.................... ////                                                                       ////
.................... ////  Example of pin access:                                               ////
.................... ////     #define LCD_ENABLE_PIN  PIN_E0                                    ////
.................... ////     #define LCD_RS_PIN      PIN_E1                                    ////
.................... ////     #define LCD_RW_PIN      PIN_E2                                    ////
.................... ////     #define LCD_DATA4       PIN_D4                                    ////
.................... ////     #define LCD_DATA5       PIN_D5                                    ////
.................... ////     #define LCD_DATA6       PIN_D6                                    ////
.................... ////     #define LCD_DATA7       PIN_D7                                    ////
.................... ////                                                                       ////
.................... ///////////////////////////////////////////////////////////////////////////////
.................... ////        (C) Copyright 1996,2010 Custom Computer Services           ////
.................... //// This source code may only be used by licensed users of the CCS C  ////
.................... //// compiler.  This source code may only be distributed to other      ////
.................... //// licensed users of the CCS C compiler.  No other use, reproduction ////
.................... //// or distribution is permitted without written permission.          ////
.................... //// Derivative programs created using this software in object code    ////
.................... //// form are not restricted in any way.                               ////
.................... ///////////////////////////////////////////////////////////////////////////
.................... 
.................... #ifndef __LCD_C__
.................... #define __LCD_C__
.................... 
.................... // define the pinout.
.................... // only required if port access is being used.
.................... typedef struct  
.................... {                            // This structure is overlayed
....................    int1 enable;           // on to an I/O port to gain
....................    int1 rs;               // access to the LCD pins.
....................    int1 rw;               // The bits are allocated from
....................    int1 unused;           // low order up.  ENABLE will
....................    unsigned int     data : 4;         // be LSB pin of that port.
....................   #if defined(__PCD__)       // The port used will be LCD_DATA_PORT.
....................    unsigned int    reserved: 8;
....................   #endif
.................... } LCD_PIN_MAP;
.................... 
.................... // this is to improve compatability with previous LCD drivers that accepted
.................... // a define labeled 'use_portb_lcd' that configured the LCD onto port B.
.................... #if ((defined(use_portb_lcd)) && (use_portb_lcd==TRUE))
....................  #define LCD_DATA_PORT getenv("SFR:PORTB")
.................... #endif
.................... 
.................... #if defined(__PCB__)
....................    // these definitions only need to be modified for baseline PICs.
....................    // all other PICs use LCD_PIN_MAP or individual LCD_xxx pin definitions.
.................... /*                                    EN, RS,   RW,   UNUSED,  DATA  */
....................  const LCD_PIN_MAP LCD_OUTPUT_MAP =  {0,  0,    0,    0,       0};
....................  const LCD_PIN_MAP LCD_INPUT_MAP =   {0,  0,    0,    0,       0xF};
.................... #endif
.................... 
.................... ////////////////////// END CONFIGURATION ///////////////////////////////////
.................... 
.................... #ifndef LCD_ENABLE_PIN
....................    #define lcd_output_enable(x) lcdlat.enable=x
....................    #define lcd_enable_tris()   lcdtris.enable=0
.................... #else
....................    #define lcd_output_enable(x) output_bit(LCD_ENABLE_PIN, x)
....................    #define lcd_enable_tris()  output_drive(LCD_ENABLE_PIN)
.................... #endif
.................... 
.................... #ifndef LCD_RS_PIN
....................    #define lcd_output_rs(x) lcdlat.rs=x
....................    #define lcd_rs_tris()   lcdtris.rs=0
.................... #else
....................    #define lcd_output_rs(x) output_bit(LCD_RS_PIN, x)
....................    #define lcd_rs_tris()  output_drive(LCD_RS_PIN)
.................... #endif
.................... 
.................... #ifndef LCD_RW_PIN
....................    #define lcd_output_rw(x) lcdlat.rw=x
....................    #define lcd_rw_tris()   lcdtris.rw=0
.................... #else
....................    #define lcd_output_rw(x) output_bit(LCD_RW_PIN, x)
....................    #define lcd_rw_tris()  output_drive(LCD_RW_PIN)
.................... #endif
.................... 
.................... // original version of this library incorrectly labeled LCD_DATA0 as LCD_DATA4,
.................... // LCD_DATA1 as LCD_DATA5, and so on.  this block of code makes the driver
.................... // compatible with any code written for the original library
.................... #if (defined(LCD_DATA0) && defined(LCD_DATA1) && defined(LCD_DATA2) && defined(LCD_DATA3) && !defined(LCD_DATA4) && !defined(LCD_DATA5) && !defined(LCD_DATA6) && !defined(LCD_DATA7))
....................    #define  LCD_DATA4    LCD_DATA0
....................    #define  LCD_DATA5    LCD_DATA1
....................    #define  LCD_DATA6    LCD_DATA2
....................    #define  LCD_DATA7    LCD_DATA3
.................... #endif
.................... 
.................... #ifndef LCD_DATA4
.................... #ifndef LCD_DATA_PORT
....................    #if defined(__PCB__)
....................       #define LCD_DATA_PORT      0x06     //portb
....................       #define set_tris_lcd(x)   set_tris_b(x)
....................    #else
....................      #if defined(PIN_D0)
....................       #define LCD_DATA_PORT      getenv("SFR:PORTD")     //portd
....................      #else
....................       #define LCD_DATA_PORT      getenv("SFR:PORTB")     //portb
....................      #endif
....................    #endif   
.................... #endif
.................... 
.................... #if defined(__PCB__)
....................    LCD_PIN_MAP lcd, lcdlat;
....................    #byte lcd = LCD_DATA_PORT
....................    #byte lcdlat = LCD_DATA_PORT
.................... #elif defined(__PCM__)
....................    LCD_PIN_MAP lcd, lcdlat, lcdtris;
....................    #byte lcd = LCD_DATA_PORT
....................    #byte lcdlat = LCD_DATA_PORT
....................    #byte lcdtris = LCD_DATA_PORT+0x80
.................... #elif defined(__PCH__)
....................    LCD_PIN_MAP lcd, lcdlat, lcdtris;
....................    #byte lcd = LCD_DATA_PORT
....................    #byte lcdlat = LCD_DATA_PORT+9
....................    #byte lcdtris = LCD_DATA_PORT+0x12
.................... #elif defined(__PCD__)
....................    LCD_PIN_MAP lcd, lcdlat, lcdtris;
....................    #word lcd = LCD_DATA_PORT
....................    #word lcdlat = LCD_DATA_PORT+2
....................    #word lcdtris = LCD_DATA_PORT-0x02
.................... #endif
.................... #endif   //LCD_DATA4 not defined
.................... 
.................... #ifndef LCD_TYPE
....................    #define LCD_TYPE 2           // 0=5x7, 1=5x10, 2=2 lines
.................... #endif
.................... 
.................... #ifndef LCD_LINE_TWO
....................    #define LCD_LINE_TWO 0x40    // LCD RAM address for the second line
.................... #endif
.................... 
.................... #ifndef LCD_LINE_LENGTH
....................    #define LCD_LINE_LENGTH 20
.................... #endif
.................... 
.................... unsigned int8 lcd_read_nibble(void);
.................... 
.................... unsigned int8 lcd_read_byte(void)
.................... {
....................    unsigned int8 low,high;
.................... 
....................  #if defined(__PCB__)
....................    set_tris_lcd(LCD_INPUT_MAP);
....................  #else
....................   #if (defined(LCD_DATA4) && defined(LCD_DATA5) && defined(LCD_DATA6) && defined(LCD_DATA7))
....................    output_float(LCD_DATA4);
*
00E3:  BSF    0D.4
....................    output_float(LCD_DATA5);
00E4:  BSF    0D.5
....................    output_float(LCD_DATA6);
00E5:  BSF    0D.6
....................    output_float(LCD_DATA7);
00E6:  BSF    0D.7
....................   #else
....................    lcdtris.data = 0xF;
....................   #endif
....................  #endif
....................         
....................    lcd_output_rw(1);
00E7:  MOVLB  02
00E8:  BSF    0D.2
00E9:  MOVLB  01
00EA:  BCF    0D.2
....................    delay_cycles(1);
00EB:  NOP
....................    lcd_output_enable(1);
00EC:  MOVLB  02
00ED:  BSF    0D.0
00EE:  MOVLB  01
00EF:  BCF    0D.0
....................    delay_cycles(1);
00F0:  NOP
....................    high = lcd_read_nibble();
00F1:  MOVLB  00
00F2:  CALL   0AA
00F3:  MOVF   78,W
00F4:  MOVWF  3C
....................       
....................    lcd_output_enable(0);
00F5:  MOVLB  02
00F6:  BCF    0D.0
00F7:  MOVLB  01
00F8:  BCF    0D.0
....................    delay_cycles(1);
00F9:  NOP
....................    lcd_output_enable(1);
00FA:  MOVLB  02
00FB:  BSF    0D.0
00FC:  MOVLB  01
00FD:  BCF    0D.0
....................    delay_us(1);
00FE:  NOP
....................    low = lcd_read_nibble();
00FF:  MOVLB  00
0100:  CALL   0AA
0101:  MOVF   78,W
0102:  MOVWF  3B
....................       
....................    lcd_output_enable(0);
0103:  MOVLB  02
0104:  BCF    0D.0
0105:  MOVLB  01
0106:  BCF    0D.0
.................... 
....................  #if defined(__PCB__)
....................    set_tris_lcd(LCD_OUTPUT_MAP);
....................  #else
....................   #if (defined(LCD_DATA4) && defined(LCD_DATA5) && defined(LCD_DATA6) && defined(LCD_DATA7))
....................    output_drive(LCD_DATA4);
0107:  BCF    0D.4
....................    output_drive(LCD_DATA5);
0108:  BCF    0D.5
....................    output_drive(LCD_DATA6);
0109:  BCF    0D.6
....................    output_drive(LCD_DATA7);
010A:  BCF    0D.7
....................   #else
....................    lcdtris.data = 0x0;
....................   #endif
....................  #endif
.................... 
....................    return( (high<<4) | low);
010B:  MOVLB  00
010C:  SWAPF  3C,W
010D:  MOVWF  77
010E:  MOVLW  F0
010F:  ANDWF  77,F
0110:  MOVF   77,W
0111:  IORWF  3B,W
0112:  MOVWF  78
.................... }
.................... 
.................... unsigned int8 lcd_read_nibble(void)
.................... {
....................   #if (defined(LCD_DATA4) && defined(LCD_DATA5) && defined(LCD_DATA6) && defined(LCD_DATA7))
*
00AA:  CLRF   3D
....................    unsigned int8 n = 0x00;
.................... 
....................    /* Read the data port */
....................    n |= input(LCD_DATA4);
00AB:  MOVLB  01
00AC:  BSF    0D.4
00AD:  MOVLW  00
00AE:  MOVLB  00
00AF:  BTFSC  0D.4
00B0:  MOVLW  01
00B1:  IORWF  3D,F
....................    n |= input(LCD_DATA5) << 1;
00B2:  MOVLB  01
00B3:  BSF    0D.5
00B4:  MOVLW  00
00B5:  MOVLB  00
00B6:  BTFSC  0D.5
00B7:  MOVLW  01
00B8:  MOVWF  77
00B9:  BCF    03.0
00BA:  RLF    77,F
00BB:  MOVF   77,W
00BC:  IORWF  3D,F
....................    n |= input(LCD_DATA6) << 2;
00BD:  MOVLB  01
00BE:  BSF    0D.6
00BF:  MOVLW  00
00C0:  MOVLB  00
00C1:  BTFSC  0D.6
00C2:  MOVLW  01
00C3:  MOVWF  77
00C4:  RLF    77,F
00C5:  RLF    77,F
00C6:  MOVLW  FC
00C7:  ANDWF  77,F
00C8:  MOVF   77,W
00C9:  IORWF  3D,F
....................    n |= input(LCD_DATA7) << 3;
00CA:  MOVLB  01
00CB:  BSF    0D.7
00CC:  MOVLW  00
00CD:  MOVLB  00
00CE:  BTFSC  0D.7
00CF:  MOVLW  01
00D0:  MOVWF  77
00D1:  RLF    77,F
00D2:  RLF    77,F
00D3:  RLF    77,F
00D4:  MOVLW  F8
00D5:  ANDWF  77,F
00D6:  MOVF   77,W
00D7:  IORWF  3D,F
....................    
....................    return(n);
00D8:  MOVF   3D,W
00D9:  MOVWF  78
....................   #else
00DA:  RETURN
....................    return(lcd.data);
....................   #endif
.................... }
.................... 
.................... void lcd_send_nibble(unsigned int8 n)
.................... {
....................   #if (defined(LCD_DATA4) && defined(LCD_DATA5) && defined(LCD_DATA6) && defined(LCD_DATA7))
....................    /* Write to the data port */
....................    output_bit(LCD_DATA4, bit_test(n, 0));
*
0073:  BTFSC  3C.0
0074:  GOTO   079
0075:  MOVLB  02
0076:  BCF    0D.4
0077:  GOTO   07B
0078:  MOVLB  00
0079:  MOVLB  02
007A:  BSF    0D.4
007B:  MOVLB  01
007C:  BCF    0D.4
....................    output_bit(LCD_DATA5, bit_test(n, 1));
007D:  MOVLB  00
007E:  BTFSC  3C.1
007F:  GOTO   084
0080:  MOVLB  02
0081:  BCF    0D.5
0082:  GOTO   086
0083:  MOVLB  00
0084:  MOVLB  02
0085:  BSF    0D.5
0086:  MOVLB  01
0087:  BCF    0D.5
....................    output_bit(LCD_DATA6, bit_test(n, 2));
0088:  MOVLB  00
0089:  BTFSC  3C.2
008A:  GOTO   08F
008B:  MOVLB  02
008C:  BCF    0D.6
008D:  GOTO   091
008E:  MOVLB  00
008F:  MOVLB  02
0090:  BSF    0D.6
0091:  MOVLB  01
0092:  BCF    0D.6
....................    output_bit(LCD_DATA7, bit_test(n, 3));
0093:  MOVLB  00
0094:  BTFSC  3C.3
0095:  GOTO   09A
0096:  MOVLB  02
0097:  BCF    0D.7
0098:  GOTO   09C
0099:  MOVLB  00
009A:  MOVLB  02
009B:  BSF    0D.7
009C:  MOVLB  01
009D:  BCF    0D.7
....................   #else      
....................    lcdlat.data = n;
....................   #endif
....................       
....................    delay_cycles(1);
009E:  NOP
....................    lcd_output_enable(1);
009F:  MOVLB  02
00A0:  BSF    0D.0
00A1:  MOVLB  01
00A2:  BCF    0D.0
....................    delay_us(2);
00A3:  GOTO   0A4
....................    lcd_output_enable(0);
00A4:  MOVLB  02
00A5:  BCF    0D.0
00A6:  MOVLB  01
00A7:  BCF    0D.0
00A8:  MOVLB  00
00A9:  RETURN
.................... }
.................... 
.................... void lcd_send_byte(unsigned int8 address, unsigned int8 n)
.................... {
....................   #if defined(__PCB__)
....................    set_tris_lcd(LCD_OUTPUT_MAP);
....................   #else
....................    lcd_enable_tris();
*
00DB:  MOVLB  01
00DC:  BCF    0D.0
....................    lcd_rs_tris();
00DD:  BCF    0D.1
....................    lcd_rw_tris();
00DE:  BCF    0D.2
....................   #endif
.................... 
....................    lcd_output_rs(0);
00DF:  MOVLB  02
00E0:  BCF    0D.1
00E1:  MOVLB  01
00E2:  BCF    0D.1
....................    while ( bit_test(lcd_read_byte(),7) ) ;
*
0113:  MOVF   78,W
0114:  MOVWF  3B
0115:  BTFSS  3B.7
0116:  GOTO   119
0117:  MOVLB  01
0118:  GOTO   0E3
....................    lcd_output_rs(address);
0119:  MOVF   39,F
011A:  BTFSS  03.2
011B:  GOTO   120
011C:  MOVLB  02
011D:  BCF    0D.1
011E:  GOTO   122
011F:  MOVLB  00
0120:  MOVLB  02
0121:  BSF    0D.1
0122:  MOVLB  01
0123:  BCF    0D.1
....................    delay_cycles(1);
0124:  NOP
....................    lcd_output_rw(0);
0125:  MOVLB  02
0126:  BCF    0D.2
0127:  MOVLB  01
0128:  BCF    0D.2
....................    delay_cycles(1);
0129:  NOP
....................    lcd_output_enable(0);
012A:  MOVLB  02
012B:  BCF    0D.0
012C:  MOVLB  01
012D:  BCF    0D.0
....................    lcd_send_nibble(n >> 4);
012E:  MOVLB  00
012F:  SWAPF  3A,W
0130:  MOVWF  3B
0131:  MOVLW  0F
0132:  ANDWF  3B,F
0133:  MOVF   3B,W
0134:  MOVWF  3C
0135:  CALL   073
....................    lcd_send_nibble(n & 0xf);
0136:  MOVF   3A,W
0137:  ANDLW  0F
0138:  MOVWF  3B
0139:  MOVWF  3C
013A:  CALL   073
013B:  RETURN
.................... }
.................... 
.................... #if defined(LCD_EXTENDED_NEWLINE)
.................... unsigned int8 g_LcdX, g_LcdY;
.................... #endif
.................... 
.................... void lcd_init(void) 
.................... {
....................    unsigned int8 i;
....................    unsigned int8 LCD_INIT_STRING[4] = {0x20 | (LCD_TYPE << 2), 0xc, 1, 6};
013C:  MOVLW  28
013D:  MOVWF  2D
013E:  MOVLW  0C
013F:  MOVWF  2E
0140:  MOVLW  01
0141:  MOVWF  2F
0142:  MOVLW  06
0143:  MOVWF  30
....................                              // These bytes need to be sent to the LCD
....................                              // to start it up.
....................    
.................... 
....................    lcd_output_enable(0);
0144:  MOVLB  02
0145:  BCF    0D.0
0146:  MOVLB  01
0147:  BCF    0D.0
....................    lcd_output_rs(0);
0148:  MOVLB  02
0149:  BCF    0D.1
014A:  MOVLB  01
014B:  BCF    0D.1
....................    lcd_output_rw(0);
014C:  MOVLB  02
014D:  BCF    0D.2
014E:  MOVLB  01
014F:  BCF    0D.2
.................... 
....................  #if defined(__PCB__)
....................    set_tris_lcd(LCD_OUTPUT_MAP);
....................  #else
....................   #if (defined(LCD_DATA4) && defined(LCD_DATA5) && defined(LCD_DATA6) && defined(LCD_DATA7))
....................    output_drive(LCD_DATA4);
0150:  BCF    0D.4
....................    output_drive(LCD_DATA5);
0151:  BCF    0D.5
....................    output_drive(LCD_DATA6);
0152:  BCF    0D.6
....................    output_drive(LCD_DATA7);
0153:  BCF    0D.7
....................   #else
....................    lcdtris.data = 0x0;
....................   #endif
....................    lcd_enable_tris();
0154:  BCF    0D.0
....................    lcd_rs_tris();
0155:  BCF    0D.1
....................    lcd_rw_tris();
0156:  BCF    0D.2
....................  #endif
....................     
....................    delay_ms(15);
0157:  MOVLW  0F
0158:  MOVLB  00
0159:  MOVWF  35
015A:  CALL   05D
....................    for(i=1;i<=3;++i)
015B:  MOVLW  01
015C:  MOVWF  2C
015D:  MOVF   2C,W
015E:  SUBLW  03
015F:  BTFSS  03.0
0160:  GOTO   169
....................    {
....................        lcd_send_nibble(3);
0161:  MOVLW  03
0162:  MOVWF  3C
0163:  CALL   073
....................        delay_ms(5);
0164:  MOVLW  05
0165:  MOVWF  35
0166:  CALL   05D
0167:  INCF   2C,F
0168:  GOTO   15D
....................    }
....................    
....................    lcd_send_nibble(2);
0169:  MOVLW  02
016A:  MOVWF  3C
016B:  CALL   073
....................    delay_ms(5);
016C:  MOVLW  05
016D:  MOVWF  35
016E:  CALL   05D
....................    for(i=0;i<=3;++i)
016F:  CLRF   2C
0170:  MOVF   2C,W
0171:  SUBLW  03
0172:  BTFSS  03.0
0173:  GOTO   183
....................       lcd_send_byte(0,LCD_INIT_STRING[i]);
0174:  MOVLW  0D
0175:  ADDWF  2C,W
0176:  MOVWF  04
0177:  MOVLW  20
0178:  MOVWF  05
0179:  BTFSC  03.0
017A:  INCF   05,F
017B:  MOVF   00,W
017C:  MOVWF  31
017D:  CLRF   39
017E:  MOVF   31,W
017F:  MOVWF  3A
0180:  CALL   0DB
.................... 
....................   #if defined(LCD_EXTENDED_NEWLINE)
0181:  INCF   2C,F
0182:  GOTO   170
0183:  MOVLP  00
0184:  GOTO   2FA (RETURN)
....................    g_LcdX = 0;
....................    g_LcdY = 0;
....................   #endif
.................... }
.................... 
.................... void lcd_gotoxy(unsigned int8 x, unsigned int8 y)
.................... {
....................    unsigned int8 address;
....................    
....................    if(y!=1)
*
0192:  DECFSZ 36,W
0193:  GOTO   195
0194:  GOTO   198
....................       address=LCD_LINE_TWO;
0195:  MOVLW  40
0196:  MOVWF  37
0197:  GOTO   199
....................    else
....................       address=0;
0198:  CLRF   37
....................      
....................    address+=x-1;
0199:  MOVLW  01
019A:  SUBWF  35,W
019B:  ADDWF  37,F
....................    lcd_send_byte(0,0x80|address);
019C:  MOVF   37,W
019D:  IORLW  80
019E:  MOVWF  38
019F:  CLRF   39
01A0:  MOVF   38,W
01A1:  MOVWF  3A
01A2:  CALL   0DB
.................... 
....................   #if defined(LCD_EXTENDED_NEWLINE)
01A3:  RETURN
....................    g_LcdX = x - 1;
....................    g_LcdY = y - 1;
....................   #endif
.................... }
.................... 
.................... void lcd_putc(char c)
.................... {
....................    switch (c)
01A4:  MOVF   34,W
01A5:  XORLW  07
01A6:  BTFSC  03.2
01A7:  GOTO   1B2
01A8:  XORLW  0B
01A9:  BTFSC  03.2
01AA:  GOTO   1B7
01AB:  XORLW  06
01AC:  BTFSC  03.2
01AD:  GOTO   1BF
01AE:  XORLW  02
01AF:  BTFSC  03.2
01B0:  GOTO   1C5
01B1:  GOTO   1CA
....................    {
....................       case '\a'   :  lcd_gotoxy(1,1);     break;
01B2:  MOVLW  01
01B3:  MOVWF  35
01B4:  MOVWF  36
01B5:  CALL   192
01B6:  GOTO   1CF
.................... 
....................       case '\f'   :  lcd_send_byte(0,1);
01B7:  CLRF   39
01B8:  MOVLW  01
01B9:  MOVWF  3A
01BA:  CALL   0DB
....................                      delay_ms(2);
01BB:  MOVLW  02
01BC:  MOVWF  35
01BD:  CALL   05D
....................                     #if defined(LCD_EXTENDED_NEWLINE)
....................                      g_LcdX = 0;
....................                      g_LcdY = 0;
....................                     #endif
....................                      break;
01BE:  GOTO   1CF
.................... 
....................      #if defined(LCD_EXTENDED_NEWLINE)
....................       case '\r'   :  lcd_gotoxy(1, g_LcdY+1);   break;
....................       case '\n'   :
....................          while (g_LcdX++ < LCD_LINE_LENGTH)
....................          {
....................             lcd_send_byte(1, ' ');
....................          }
....................          lcd_gotoxy(1, g_LcdY+2);
....................          break;
....................      #else
....................       case '\n'   : lcd_gotoxy(1,2);        break;
01BF:  MOVLW  01
01C0:  MOVWF  35
01C1:  MOVLW  02
01C2:  MOVWF  36
01C3:  CALL   192
01C4:  GOTO   1CF
....................      #endif
....................      
....................       case '\b'   : lcd_send_byte(0,0x10);  break;
01C5:  CLRF   39
01C6:  MOVLW  10
01C7:  MOVWF  3A
01C8:  CALL   0DB
01C9:  GOTO   1CF
....................      
....................      #if defined(LCD_EXTENDED_NEWLINE)
....................       default     : 
....................          if (g_LcdX < LCD_LINE_LENGTH)
....................          {
....................             lcd_send_byte(1, c);
....................             g_LcdX++;
....................          }
....................          break;
....................      #else
....................       default     : lcd_send_byte(1,c);     break;
01CA:  MOVLW  01
01CB:  MOVWF  39
01CC:  MOVF   34,W
01CD:  MOVWF  3A
01CE:  CALL   0DB
....................      #endif
....................    }
01CF:  RETURN
.................... }
....................  
.................... char lcd_getc(unsigned int8 x, unsigned int8 y)
.................... {
....................    char value;
.................... 
....................    lcd_gotoxy(x,y);
....................    while ( bit_test(lcd_read_byte(),7) ); // wait until busy flag is low
....................    lcd_output_rs(1);
....................    value = lcd_read_byte();
....................    lcd_output_rs(0);
....................    
....................    return(value);
.................... }
.................... 
.................... // write a custom character to the ram
.................... // which is 0-7 and specifies which character array we are modifying.
.................... // ptr points to an array of 8 bytes, where each byte is the next row of
.................... //    pixels.  only bits 0-4 are used.  the last row is the cursor row, and
.................... //    usually you will want to leave this byte 0x00.
.................... void lcd_set_cgram_char(unsigned int8 which, unsigned int8 *ptr)
.................... {
....................    unsigned int i;
.................... 
....................    which <<= 3;
....................    which &= 0x38;
.................... 
....................    lcd_send_byte(0, 0x40 | which);  //set cgram address
.................... 
....................    for(i=0; i<8; i++)
....................    {
....................       lcd_send_byte(1, *ptr++);
....................    }
....................   
....................    #if defined(LCD_EXTENDED_NEWLINE)
....................     lcd_gotoxy(g_LcdX+1, g_LcdY+1);  //set ddram address
....................    #endif
.................... }
.................... 
.................... void lcd_cursor_on(int1 on)
.................... {
....................    if (on)
....................    {
....................       lcd_send_byte(0,0x0F);           //turn LCD cursor ON
....................    }
....................    else
....................    {
....................       lcd_send_byte(0,0x0C);           //turn LCD cursor OFF
....................    }
.................... }
.................... 
.................... #endif
.................... 
.................... 
.................... /*****************************************************************************
....................  * Funciones de Inicializacion de Perifericos
....................  ****************************************************************************/
....................  
....................  /*typedef enum {
....................     SUELTO,
....................     Q_PRESIONADO,
....................     PRESIONADO,
....................     Q_SUELTO
.................... } eEstado;*/
.................... 
.................... typedef enum {
....................     SUELTO,
....................     PRESIONADO,
....................     Q_PRES,
....................     Q_SUELTO
.................... } eEstado;
.................... 
.................... eEstado estado_actual = SUELTO;
.................... 
.................... /*volatile int flag_pulsado = 0;
.................... volatile int flag_segundo = 0;
.................... volatile int flanco_d = 0;
.................... volatile int flanco_a = 0;*/
.................... 
.................... int16 flag_segundo = 0;
.................... int valor = 0;
.................... 
.................... //FUNCIONES
.................... void MaquinaEstado(void);
.................... void InitGPIO(void);
.................... void EscribirDisplay(signed int valor);
.................... int8 EstadoPulsador(void);
.................... void InitTimer0(void);
.................... 
.................... 
.................... #INT_TIMER0 // ACA ESCRIBO QUÉ DEBO HACER EN CADA INTERRUPCIÓN
.................... void Timer0_ISR() {
....................    set_timer0(178);   // Reinicio el timer 0
*
003E:  MOVLW  B2
003F:  MOVWF  15
....................    flag_segundo++; // pasaron 20 ms
0040:  INCF   29,F
0041:  BTFSC  03.2
0042:  INCF   2A,F
0043:  BCF    0B.2
0044:  MOVLP  00
0045:  GOTO   023
.................... }
.................... 
.................... /*****************************************************************************
....................  * Main
....................  ****************************************************************************/
.................... 
.................... void main(void) {
*
02E7:  MOVLW  6A
02E8:  MOVLB  01
02E9:  MOVWF  19
02EA:  MOVLB  00
02EB:  CLRF   28
02EC:  CLRF   2A
02ED:  CLRF   29
02EE:  CLRF   2B
02EF:  MOVLB  03
02F0:  CLRF   0C
02F1:  CLRF   0D
02F2:  MOVLB  02
02F3:  CLRF   12
02F4:  CLRF   11
02F5:  CLRF   14
02F6:  CLRF   13
.................... 
....................    InitGPIO();    // Inicializo el PORTA y PORTB
02F7:  MOVLB  00
02F8:  GOTO   052
....................    lcd_init();// Inicializo LCD
02F9:  GOTO   13C
....................    InitTimer0();
02FA:  GOTO   185
....................   
....................    printf(LCD_PUTC,"Cuenta: %d",valor);
02FB:  MOVLW  46
02FC:  MOVLB  03
02FD:  MOVWF  11
02FE:  MOVLW  00
02FF:  MOVWF  12
0300:  BCF    03.0
0301:  MOVLW  08
0302:  MOVLB  00
0303:  MOVWF  2E
0304:  CALL   1D0
0305:  MOVF   2B,W
0306:  MOVWF  2E
0307:  MOVLW  18
0308:  MOVWF  2F
0309:  CALL   235
....................    estado_actual=SUELTO;
030A:  CLRF   28
....................    while (TRUE)
....................       MaquinaEstado();
030B:  GOTO   28C
030C:  GOTO   30B
.................... }
.................... 
030D:  SLEEP
.................... /*****************************************************************************
....................  * Implementacion de funciones
....................  ****************************************************************************/
....................  
.................... void InitGPIO(void){
....................     set_tris_a(0xFF);   // PORTA como ENTRADA
*
0052:  MOVLW  FF
0053:  MOVLB  01
0054:  MOVWF  0C
....................     set_tris_b(0x00);   // PORTB como SALIDA
0055:  MOVLW  00
0056:  MOVWF  0D
....................     output_b(0x00); //inicialuizo en 0
0057:  CLRF   0D
0058:  MOVLB  02
0059:  CLRF   0D
005A:  MOVLP  00
005B:  MOVLB  00
005C:  GOTO   2F9 (RETURN)
.................... }
.................... 
.................... void EscribirDisplay(signed int valor) {
....................    lcd_putc('\f');
*
02C7:  MOVLW  0C
02C8:  MOVWF  34
02C9:  CALL   1A4
....................    printf(LCD_PUTC,"Cuenta: %d",valor);
02CA:  MOVLW  4C
02CB:  MOVLB  03
02CC:  MOVWF  11
02CD:  MOVLW  00
02CE:  MOVWF  12
02CF:  BCF    03.0
02D0:  MOVLW  08
02D1:  MOVLB  00
02D2:  MOVWF  2E
02D3:  CALL   1D0
02D4:  MOVF   2D,W
02D5:  MOVWF  2E
02D6:  MOVLW  18
02D7:  MOVWF  2F
02D8:  CALL   235
.................... }
.................... 
.................... int8 EstadoPulsador(void)
*
028C:  CLRF   2D
.................... {
....................    int8 res = 0;
....................    res = input(PIN_A0);
028D:  MOVLB  01
028E:  BSF    0C.0
028F:  MOVLB  00
0290:  CLRF   2D
0291:  BTFSC  0C.0
0292:  INCF   2D,F
....................    return res;
0293:  MOVF   2D,W
0294:  MOVWF  78
.................... }
.................... 
.................... void InitTimer0(void){
....................    
....................     setup_timer_0(RTCC_INTERNAL|RTCC_DIV_256); // Configuro prescaler y osc
*
0185:  MOVLB  01
0186:  MOVF   15,W
0187:  ANDLW  C0
0188:  IORLW  07
0189:  MOVWF  15
....................     
....................     set_timer0(178);                  // Reinicio el timer
018A:  MOVLW  B2
018B:  MOVLB  00
018C:  MOVWF  15
....................     enable_interrupts(INT_TIMER0);    // Desactivo Interrupcion timer1
018D:  BSF    0B.5
....................     enable_interrupts(GLOBAL);        // Desactivo Interrupciones globales
018E:  MOVLW  C0
018F:  IORWF  0B,F
0190:  MOVLP  00
0191:  GOTO   2FB (RETURN)
.................... }
.................... 
.................... void MaquinaEstado(void){
*
0295:  MOVF   78,W
0296:  MOVWF  2C
....................     int boton = EstadoPulsador(); //funcion q cambia el estado
.................... 
....................     switch (estado_actual) { //entro en el switch
0297:  MOVF   28,W
0298:  ADDLW  FC
0299:  BTFSC  03.0
029A:  GOTO   2DD
029B:  ADDLW  04
029C:  GOTO   2DF
.................... 
....................         case SUELTO:
....................             if(boton == 0) {// botón presionado (activo en 0)
029D:  MOVF   2C,F
029E:  BTFSS  03.2
029F:  GOTO   2A4
....................                 flag_segundo = 0;
02A0:  CLRF   2A
02A1:  CLRF   29
....................                 estado_actual = Q_PRES;
02A2:  MOVLW  02
02A3:  MOVWF  28
....................             }
....................             
....................             break;
02A4:  GOTO   2DD
....................             
....................         case PRESIONADO:
....................            if(boton == 1){ // se soltó
02A5:  DECFSZ 2C,W
02A6:  GOTO   2AB
....................               flag_segundo = 0;
02A7:  CLRF   2A
02A8:  CLRF   29
....................               estado_actual = Q_SUELTO;
02A9:  MOVLW  03
02AA:  MOVWF  28
....................            }
....................            break;
02AB:  GOTO   2DD
.................... 
....................         case Q_PRES:
....................            if(boton == 0){ // sigue presionado
02AC:  MOVF   2C,F
02AD:  BTFSS  03.2
02AE:  GOTO   2BA
....................                 if(flag_segundo >= 1) //20 = tiempo del antirebote
02AF:  MOVF   2A,F
02B0:  BTFSS  03.2
02B1:  GOTO   2B6
02B2:  MOVF   29,W
02B3:  SUBLW  00
02B4:  BTFSC  03.0
02B5:  GOTO   2B9
....................                      estado_actual = PRESIONADO;
02B6:  MOVLW  01
02B7:  MOVWF  28
02B8:  GOTO   2BA
....................                else // El botón se liberó antes de tiempo 
....................                estado_actual = SUELTO;
02B9:  CLRF   28
....................             }
....................                break;       
02BA:  GOTO   2DD
.................... 
....................         case Q_SUELTO:
....................              if(boton == 1) { // sigue suelto
02BB:  DECFSZ 2C,W
02BC:  GOTO   2DD
....................                  if(flag_segundo >= 1) { // confirmo liberación estable
02BD:  MOVF   2A,F
02BE:  BTFSS  03.2
02BF:  GOTO   2C4
02C0:  MOVF   29,W
02C1:  SUBLW  00
02C2:  BTFSC  03.0
02C3:  GOTO   2DB
....................                      valor++;
02C4:  INCF   2B,F
....................                      EscribirDisplay(valor);
02C5:  MOVF   2B,W
02C6:  MOVWF  2D
....................                      estado_actual = SUELTO;
*
02D9:  CLRF   28
....................                  }
02DA:  GOTO   2DD
....................                  else 
....................                      estado_actual = PRESIONADO; // rebote ? seguía apretado
02DB:  MOVLW  01
02DC:  MOVWF  28
....................              }
....................              break;
....................     }
02DD:  MOVLP  00
02DE:  GOTO   30B (RETURN)
.................... }
.................... 
.................... 

Configuration Fuses:
   Word  1: 3F84   INTRC_IO NOWDT PUT NOMCLR NOPROTECT NOCPD BROWNOUT NOCLKOUT IESO FCMEN
   Word  2: 1EFF   NOWRT PLL_SW STVREN BORV19 NODEBUG NOLVP
